ARM GAS  C:\Users\sebbe\AppData\Local\Temp\ccx6NImA.s 			page 1


   1              		.syntax unified
   2              		.cpu cortex-m3
   3              		.fpu softvfp
   4              		.eabi_attribute 20, 1
   5              		.eabi_attribute 21, 1
   6              		.eabi_attribute 23, 3
   7              		.eabi_attribute 24, 1
   8              		.eabi_attribute 25, 1
   9              		.eabi_attribute 26, 1
  10              		.eabi_attribute 30, 1
  11              		.eabi_attribute 34, 1
  12              		.eabi_attribute 18, 4
  13              		.thumb
  14              		.syntax unified
  15              		.file	"main.c"
  16              		.text
  17              	.Ltext0:
  18              		.cfi_sections	.debug_frame
  19              		.section	.text.centralDispatcher,"ax",%progbits
  20              		.align	2
  21              		.global	centralDispatcher
  22              		.thumb
  23              		.thumb_func
  24              		.type	centralDispatcher, %function
  25              	centralDispatcher:
  26              	.LFB65:
  27              		.file 1 "main.c"
   1:main.c        **** /* ========================================
   2:main.c        ****  *
   3:main.c        ****  * AUTHOR: Kristian Lau Jespersen, Jonathan Hartvigsen Juncker
   4:main.c        ****  *  SPI slave version 12
   5:main.c        ****     
   6:main.c        ****     Error checks added.
   7:main.c        ****  * ========================================
   8:main.c        **** */
   9:main.c        **** #include <stdio.h>
  10:main.c        **** #include "project.h"
  11:main.c        **** #include "EDBikeProtocol.h"
  12:main.c        **** #include "lockUnit.h"
  13:main.c        **** #include "SPI.h"
  14:main.c        **** #include "wheelSensor.h"
  15:main.c        **** #include "Accelerometer.h"
  16:main.c        **** #include "UART.h"
  17:main.c        **** #include "bikeState.h"
  18:main.c        **** #include "SPIprotocol.h"
  19:main.c        **** 
  20:main.c        **** /***********************initial state************************/
  21:main.c        ****  enum bikeState STATE=LOCKED;
  22:main.c        **** 
  23:main.c        **** /***********************SPI variables************************/
  24:main.c        ****  uint8 rxBuffer[maxMessageLength]={'#','#','#','#'};
  25:main.c        ****  uint8 txBuffer[maxMessageLength]={'#','#','#','#'};
  26:main.c        ****  uint8 txCloneBuffer[maxMessageLength*6];
  27:main.c        **** 
  28:main.c        **** 
  29:main.c        **** /***********************UART variables************************/
  30:main.c        **** char8 UART_buffer[16];
ARM GAS  C:\Users\sebbe\AppData\Local\Temp\ccx6NImA.s 			page 2


  31:main.c        **** 
  32:main.c        **** /*******************Wheel sensor variables*******************/
  33:main.c        **** int wheel_revolutions = 0;
  34:main.c        **** uint8 speed = 0;
  35:main.c        **** uint8 dist = 0;
  36:main.c        **** double time_temp = 0;
  37:main.c        **** double wheelRadius = 25;
  38:main.c        **** double wheelCirc = 0.00314;
  39:main.c        **** 
  40:main.c        **** /************************handler declarations*************************/
  41:main.c        **** void handleCommandReceived(uint8* rxBuffer);
  42:main.c        **** void centralDispatcher(uint16 STATE);
  43:main.c        **** 
  44:main.c        **** /************************handler definitions*************************/
  45:main.c        **** void handleCommandReceived(uint8* rxBuffer)
  46:main.c        **** {
  47:main.c        ****     
  48:main.c        **** //    for (uint32_t i = 0; i < maxMessageLength; i++)
  49:main.c        **** //        {
  50:main.c        **** //       
  51:main.c        **** //        sprintf(UART_buffer,"rx Byte %d: %d \n\r",i,rxBuffer[i]);
  52:main.c        **** //        UART_1_PutString(UART_buffer);
  53:main.c        **** //        }
  54:main.c        ****     
  55:main.c        ****     
  56:main.c        ****     switch (rxBuffer[FIRST_EVENT_INDEX])
  57:main.c        ****     {
  58:main.c        ****         //CASE LOCK
  59:main.c        ****         case USER_LOCK:
  60:main.c        ****         {
  61:main.c        ****             STATE=LOCKING;
  62:main.c        ****             centralDispatcher(STATE);
  63:main.c        ****             break;
  64:main.c        ****         }
  65:main.c        ****         
  66:main.c        ****         //CASE UNLOCK
  67:main.c        ****         case USER_UNLOCK:
  68:main.c        ****         {
  69:main.c        ****             STATE=UNLOCKING;
  70:main.c        ****             centralDispatcher(STATE);
  71:main.c        ****             break;
  72:main.c        ****         }
  73:main.c        ****         case USER_SET_WHEELCIRCUMFERENCE:
  74:main.c        ****         {
  75:main.c        ****             wheelCirc = calcWheelCirc(WheelRadiusToMetres(rxBuffer[FIRST_EVENT_INDEX]));
  76:main.c        ****             break;
  77:main.c        ****         }
  78:main.c        ****         
  79:main.c        ****         default:
  80:main.c        ****         break;
  81:main.c        **** }   
  82:main.c        **** }
  83:main.c        **** 
  84:main.c        **** 
  85:main.c        **** void centralDispatcher(uint16 STATE)
  86:main.c        **** {
  28              		.loc 1 86 0
ARM GAS  C:\Users\sebbe\AppData\Local\Temp\ccx6NImA.s 			page 3


  29              		.cfi_startproc
  30              		@ args = 0, pretend = 0, frame = 0
  31              		@ frame_needed = 0, uses_anonymous_args = 0
  32              	.LVL0:
  33 0000 10B5     		push	{r4, lr}
  34              		.cfi_def_cfa_offset 8
  35              		.cfi_offset 4, -8
  36              		.cfi_offset 14, -4
  87:main.c        ****     switch(STATE)
  37              		.loc 1 87 0
  38 0002 6F28     		cmp	r0, #111
  39 0004 39D0     		beq	.L3
  40 0006 7528     		cmp	r0, #117
  41 0008 02D0     		beq	.L4
  42 000a 6C28     		cmp	r0, #108
  43 000c 43D1     		bne	.L1
  44 000e 15E0     		b	.L5
  45              	.L4:
  88:main.c        ****         {
  89:main.c        ****             case UNLOCKING:
  90:main.c        ****             {
  91:main.c        ****                 //UART_1_PutString("\nDispatcher: unlocking bike %d\n");
  92:main.c        ****                 unlockBike();
  46              		.loc 1 92 0
  47 0010 FFF7FEFF 		bl	unlockBike
  48              	.LVL1:
  93:main.c        ****                 LED_pin_Write(1);
  49              		.loc 1 93 0
  50 0014 0120     		movs	r0, #1
  51 0016 FFF7FEFF 		bl	LED_pin_Write
  52              	.LVL2:
  94:main.c        ****                 loadToSpecificTxBufferIndex(txBuffer,MESSAGE_TYPE_ID_INDEX,EVENT_TRANSMISSION_TO_MA
  53              		.loc 1 94 0
  54 001a 1F4C     		ldr	r4, .L7
  55 001c 6522     		movs	r2, #101
  56 001e 0021     		movs	r1, #0
  57 0020 2046     		mov	r0, r4
  58 0022 FFF7FEFF 		bl	loadToSpecificTxBufferIndex
  59              	.LVL3:
  95:main.c        ****                 loadToSpecificTxBufferIndex(txBuffer,FIRST_EVENT_INDEX,UNLOCKING);
  60              		.loc 1 95 0
  61 0026 7522     		movs	r2, #117
  62 0028 0121     		movs	r1, #1
  63 002a 2046     		mov	r0, r4
  64 002c FFF7FEFF 		bl	loadToSpecificTxBufferIndex
  65              	.LVL4:
  96:main.c        ****                 transferIsReady(txBuffer);
  66              		.loc 1 96 0
  67 0030 2046     		mov	r0, r4
  68 0032 FFF7FEFF 		bl	transferIsReady
  69              	.LVL5:
  97:main.c        ****                 isr_bike_is_idle_Enable();
  70              		.loc 1 97 0
  71 0036 FFF7FEFF 		bl	isr_bike_is_idle_Enable
  72              	.LVL6:
  98:main.c        ****                 break;
  73              		.loc 1 98 0
ARM GAS  C:\Users\sebbe\AppData\Local\Temp\ccx6NImA.s 			page 4


  74 003a 10BD     		pop	{r4, pc}
  75              	.LVL7:
  76              	.L5:
  99:main.c        ****             }
 100:main.c        ****             case UNLOCKED_AND_ACTIVE:
 101:main.c        ****             {
 102:main.c        ****                 break;
 103:main.c        ****             }
 104:main.c        ****             case UNLOCKED_AND_IDLE:
 105:main.c        ****             {
 106:main.c        ****                 break;
 107:main.c        ****             }
 108:main.c        ****             case UNLOCKED_AND_IDLE_READY_TO_LOCK:
 109:main.c        ****             {
 110:main.c        ****                 break;
 111:main.c        ****             }
 112:main.c        ****             case LOCKING:
 113:main.c        ****             {
 114:main.c        ****                 //UART_1_PutString("\nDispatcher: locking bike %d\n");
 115:main.c        ****                 lockBike();
  77              		.loc 1 115 0
  78 003c FFF7FEFF 		bl	lockBike
  79              	.LVL8:
 116:main.c        ****                 LED_pin_Write(0);
  80              		.loc 1 116 0
  81 0040 0020     		movs	r0, #0
  82 0042 FFF7FEFF 		bl	LED_pin_Write
  83              	.LVL9:
 117:main.c        ****                 loadToSpecificTxBufferIndex(txBuffer,MESSAGE_TYPE_ID_INDEX,EVENT_TRANSMISSION_TO_MA
  84              		.loc 1 117 0
  85 0046 144C     		ldr	r4, .L7
  86 0048 6522     		movs	r2, #101
  87 004a 0021     		movs	r1, #0
  88 004c 2046     		mov	r0, r4
  89 004e FFF7FEFF 		bl	loadToSpecificTxBufferIndex
  90              	.LVL10:
 118:main.c        ****                 loadToSpecificTxBufferIndex(txBuffer,FIRST_EVENT_INDEX,LOCKING);
  91              		.loc 1 118 0
  92 0052 6C22     		movs	r2, #108
  93 0054 0121     		movs	r1, #1
  94 0056 2046     		mov	r0, r4
  95 0058 FFF7FEFF 		bl	loadToSpecificTxBufferIndex
  96              	.LVL11:
 119:main.c        ****                 transferIsReady(txBuffer);
  97              		.loc 1 119 0
  98 005c 2046     		mov	r0, r4
  99 005e FFF7FEFF 		bl	transferIsReady
 100              	.LVL12:
 120:main.c        ****                 isr_bike_is_idle_Disable();
 101              		.loc 1 120 0
 102 0062 FFF7FEFF 		bl	isr_bike_is_idle_Disable
 103              	.LVL13:
 121:main.c        ****              
 122:main.c        ****                 stopAccelerometerTimer();
 104              		.loc 1 122 0
 105 0066 FFF7FEFF 		bl	stopAccelerometerTimer
 106              	.LVL14:
ARM GAS  C:\Users\sebbe\AppData\Local\Temp\ccx6NImA.s 			page 5


 123:main.c        ****                 dist=0;
 107              		.loc 1 123 0
 108 006a 0C4B     		ldr	r3, .L7+4
 109 006c 0022     		movs	r2, #0
 110 006e 1A70     		strb	r2, [r3]
 124:main.c        ****                 wheel_revolutions=0;
 111              		.loc 1 124 0
 112 0070 5A60     		str	r2, [r3, #4]
 113              	.LVL15:
 125:main.c        ****                 
 126:main.c        ****                 //pseudo implementation. Actual lock confirm needs to be received from sensor. 
 127:main.c        ****                 STATE=LOCKED;
 128:main.c        ****                 centralDispatcher(STATE);
 114              		.loc 1 128 0
 115 0072 6F20     		movs	r0, #111
 116 0074 FFF7FEFF 		bl	centralDispatcher
 117              	.LVL16:
 129:main.c        ****                 break;
 118              		.loc 1 129 0
 119 0078 10BD     		pop	{r4, pc}
 120              	.LVL17:
 121              	.L3:
 130:main.c        ****             }
 131:main.c        ****             case LOCKED:
 132:main.c        ****             {
 133:main.c        ****                 loadToSpecificTxBufferIndex(txBuffer,MESSAGE_TYPE_ID_INDEX,EVENT_TRANSMISSION_TO_MA
 122              		.loc 1 133 0
 123 007a 074C     		ldr	r4, .L7
 124 007c 6522     		movs	r2, #101
 125 007e 0021     		movs	r1, #0
 126 0080 2046     		mov	r0, r4
 127              	.LVL18:
 128 0082 FFF7FEFF 		bl	loadToSpecificTxBufferIndex
 129              	.LVL19:
 134:main.c        ****                 loadToSpecificTxBufferIndex(txBuffer,FIRST_EVENT_INDEX,LOCKED);
 130              		.loc 1 134 0
 131 0086 6F22     		movs	r2, #111
 132 0088 0121     		movs	r1, #1
 133 008a 2046     		mov	r0, r4
 134 008c FFF7FEFF 		bl	loadToSpecificTxBufferIndex
 135              	.LVL20:
 135:main.c        ****                 transferIsReady(txBuffer);
 136              		.loc 1 135 0
 137 0090 2046     		mov	r0, r4
 138 0092 FFF7FEFF 		bl	transferIsReady
 139              	.LVL21:
 140              	.L1:
 141 0096 10BD     		pop	{r4, pc}
 142              	.L8:
 143              		.align	2
 144              	.L7:
 145 0098 00000000 		.word	.LANCHOR0
 146 009c 00000000 		.word	.LANCHOR1
 147              		.cfi_endproc
 148              	.LFE65:
 149              		.size	centralDispatcher, .-centralDispatcher
 150              		.section	.text.handleCommandReceived,"ax",%progbits
ARM GAS  C:\Users\sebbe\AppData\Local\Temp\ccx6NImA.s 			page 6


 151              		.align	2
 152              		.global	handleCommandReceived
 153              		.thumb
 154              		.thumb_func
 155              		.type	handleCommandReceived, %function
 156              	handleCommandReceived:
 157              	.LFB64:
  46:main.c        ****     
 158              		.loc 1 46 0
 159              		.cfi_startproc
 160              		@ args = 0, pretend = 0, frame = 0
 161              		@ frame_needed = 0, uses_anonymous_args = 0
 162              	.LVL22:
 163 0000 08B5     		push	{r3, lr}
 164              		.cfi_def_cfa_offset 8
 165              		.cfi_offset 3, -8
 166              		.cfi_offset 14, -4
  56:main.c        ****     {
 167              		.loc 1 56 0
 168 0002 4078     		ldrb	r0, [r0, #1]	@ zero_extendqisi2
 169              	.LVL23:
 170 0004 5528     		cmp	r0, #85
 171 0006 09D0     		beq	.L11
 172 0008 5728     		cmp	r0, #87
 173 000a 0DD0     		beq	.L12
 174 000c 4C28     		cmp	r0, #76
 175 000e 12D1     		bne	.L9
  61:main.c        ****             centralDispatcher(STATE);
 176              		.loc 1 61 0
 177 0010 6C20     		movs	r0, #108
 178 0012 094B     		ldr	r3, .L15
 179 0014 1871     		strb	r0, [r3, #4]
  62:main.c        ****             break;
 180              		.loc 1 62 0
 181 0016 FFF7FEFF 		bl	centralDispatcher
 182              	.LVL24:
  63:main.c        ****         }
 183              		.loc 1 63 0
 184 001a 08BD     		pop	{r3, pc}
 185              	.L11:
  69:main.c        ****             centralDispatcher(STATE);
 186              		.loc 1 69 0
 187 001c 7520     		movs	r0, #117
 188 001e 064B     		ldr	r3, .L15
 189 0020 1871     		strb	r0, [r3, #4]
  70:main.c        ****             break;
 190              		.loc 1 70 0
 191 0022 FFF7FEFF 		bl	centralDispatcher
 192              	.LVL25:
  71:main.c        ****         }
 193              		.loc 1 71 0
 194 0026 08BD     		pop	{r3, pc}
 195              	.L12:
  75:main.c        ****             break;
 196              		.loc 1 75 0
 197 0028 FFF7FEFF 		bl	WheelRadiusToMetres
 198              	.LVL26:
ARM GAS  C:\Users\sebbe\AppData\Local\Temp\ccx6NImA.s 			page 7


 199 002c FFF7FEFF 		bl	calcWheelCirc
 200              	.LVL27:
 201 0030 014B     		ldr	r3, .L15
 202 0032 C3E90201 		strd	r0, [r3, #8]
 203              	.L9:
 204 0036 08BD     		pop	{r3, pc}
 205              	.L16:
 206              		.align	2
 207              	.L15:
 208 0038 00000000 		.word	.LANCHOR0
 209              		.cfi_endproc
 210              	.LFE64:
 211              		.size	handleCommandReceived, .-handleCommandReceived
 212              		.section	.text.slave_rx_interrupt_handler,"ax",%progbits
 213              		.align	2
 214              		.global	slave_rx_interrupt_handler
 215              		.thumb
 216              		.thumb_func
 217              		.type	slave_rx_interrupt_handler, %function
 218              	slave_rx_interrupt_handler:
 219              	.LFB66:
 136:main.c        ****                 break;
 137:main.c        ****             }
 138:main.c        ****         }
 139:main.c        **** }
 140:main.c        **** 
 141:main.c        **** 
 142:main.c        **** /************************definition of SPI ISR*************************/
 143:main.c        **** CY_ISR(slave_rx_interrupt_handler)         
 144:main.c        **** {
 220              		.loc 1 144 0
 221              		.cfi_startproc
 222              		@ args = 0, pretend = 0, frame = 0
 223              		@ frame_needed = 0, uses_anonymous_args = 0
 224 0000 10B5     		push	{r4, lr}
 225              		.cfi_def_cfa_offset 8
 226              		.cfi_offset 4, -8
 227              		.cfi_offset 14, -4
 145:main.c        ****     //UART_1_PutString("SLAVE RX ISR CALLED \n\r");
 146:main.c        ****     receiveSPI(rxBuffer);
 228              		.loc 1 146 0
 229 0002 044C     		ldr	r4, .L19
 230 0004 2046     		mov	r0, r4
 231 0006 FFF7FEFF 		bl	receiveSPI
 232              	.LVL28:
 147:main.c        ****     handleCommandReceived(rxBuffer);
 233              		.loc 1 147 0
 234 000a 2046     		mov	r0, r4
 235 000c FFF7FEFF 		bl	handleCommandReceived
 236              	.LVL29:
 237 0010 10BD     		pop	{r4, pc}
 238              	.L20:
 239 0012 00BF     		.align	2
 240              	.L19:
 241 0014 10000000 		.word	.LANCHOR0+16
 242              		.cfi_endproc
 243              	.LFE66:
ARM GAS  C:\Users\sebbe\AppData\Local\Temp\ccx6NImA.s 			page 8


 244              		.size	slave_rx_interrupt_handler, .-slave_rx_interrupt_handler
 245              		.global	__aeabi_ui2d
 246              		.global	__aeabi_dsub
 247              		.global	__aeabi_d2uiz
 248              		.section	.text.isr_wheel_tick_Handler,"ax",%progbits
 249              		.align	2
 250              		.global	isr_wheel_tick_Handler
 251              		.thumb
 252              		.thumb_func
 253              		.type	isr_wheel_tick_Handler, %function
 254              	isr_wheel_tick_Handler:
 255              	.LFB67:
 148:main.c        ****     /*
 149:main.c        ****     if (SPI_slave_ReadTxStatus()==SPI_slave_STS_TX_FIFO_EMPTY_SHIFT)
 150:main.c        ****     {
 151:main.c        ****         SPI_slave_PutArray(txBuffer,maxMessageLength);
 152:main.c        ****      }
 153:main.c        ****     */
 154:main.c        ****   
 155:main.c        ****     
 156:main.c        ****     
 157:main.c        **** }
 158:main.c        **** 
 159:main.c        **** /************************definition of wheel tick ISR*************************/
 160:main.c        **** CY_ISR( isr_wheel_tick_Handler )
 161:main.c        **** {  
 256              		.loc 1 161 0
 257              		.cfi_startproc
 258              		@ args = 0, pretend = 0, frame = 0
 259              		@ frame_needed = 0, uses_anonymous_args = 0
 260 0000 70B5     		push	{r4, r5, r6, lr}
 261              		.cfi_def_cfa_offset 16
 262              		.cfi_offset 4, -16
 263              		.cfi_offset 5, -12
 264              		.cfi_offset 6, -8
 265              		.cfi_offset 14, -4
 162:main.c        ****     time_temp = WheelTickTimer_ReadCounter();
 266              		.loc 1 162 0
 267 0002 FFF7FEFF 		bl	WheelTickTimer_ReadCounter
 268              	.LVL30:
 269 0006 244C     		ldr	r4, .L23+8
 270 0008 FFF7FEFF 		bl	__aeabi_ui2d
 271              	.LVL31:
 272 000c C4E90201 		strd	r0, [r4, #8]
 163:main.c        ****     resetSpeedTimer();
 273              		.loc 1 163 0
 274 0010 FFF7FEFF 		bl	resetSpeedTimer
 275              	.LVL32:
 164:main.c        ****     wheel_revolutions ++;
 276              		.loc 1 164 0
 277 0014 6668     		ldr	r6, [r4, #4]
 278 0016 0136     		adds	r6, r6, #1
 279 0018 6660     		str	r6, [r4, #4]
 165:main.c        ****     time_temp = 3000 - time_temp;
 280              		.loc 1 165 0
 281 001a D4E90223 		ldrd	r2, [r4, #8]
 282 001e 1CA1     		adr	r1, .L23
ARM GAS  C:\Users\sebbe\AppData\Local\Temp\ccx6NImA.s 			page 9


 283 0020 D1E90001 		ldrd	r0, [r1]
 284 0024 FFF7FEFF 		bl	__aeabi_dsub
 285              	.LVL33:
 286 0028 C4E90201 		strd	r0, [r4, #8]
 166:main.c        ****     
 167:main.c        ****     dist = (uint8)calcDistance(wheel_revolutions, wheelCirc);
 287              		.loc 1 167 0
 288 002c 1B4D     		ldr	r5, .L23+12
 289 002e D5E90223 		ldrd	r2, [r5, #8]
 290 0032 3046     		mov	r0, r6
 291 0034 FFF7FEFF 		bl	calcDistance
 292              	.LVL34:
 293 0038 FFF7FEFF 		bl	__aeabi_d2uiz
 294              	.LVL35:
 295 003c 2070     		strb	r0, [r4]
 168:main.c        ****     speed = (uint8)calcSpeed(time_temp, wheelCirc);
 296              		.loc 1 168 0
 297 003e D5E90223 		ldrd	r2, [r5, #8]
 298 0042 D4E90201 		ldrd	r0, [r4, #8]
 299 0046 FFF7FEFF 		bl	calcSpeed
 300              	.LVL36:
 301 004a FFF7FEFF 		bl	__aeabi_d2uiz
 302              	.LVL37:
 303 004e 2074     		strb	r0, [r4, #16]
 169:main.c        ****     
 170:main.c        **** 
 171:main.c        **** 
 172:main.c        ****     //debug
 173:main.c        ****     /*
 174:main.c        ****     
 175:main.c        ****     sprintf(UART_buffer,"\n\rtime_temp: %f\n",time_temp);
 176:main.c        ****     UART_1_PutString(UART_buffer);
 177:main.c        ****     
 178:main.c        ****     sprintf(UART_buffer,"\n\rSpeed calc read: %d\n",speed);
 179:main.c        ****     UART_1_PutString(UART_buffer);
 180:main.c        ****     
 181:main.c        ****     sprintf(UART_buffer,"\n\rDist calc read: %d\n",dist);
 182:main.c        ****     UART_1_PutString(UART_buffer);
 183:main.c        ****     
 184:main.c        ****     UART_1_PutString("printing tx buffer before send in wheel tick handler\n\r");
 185:main.c        ****     for (uint32_t i = 0; i < maxMessageLength; i++)
 186:main.c        ****     {
 187:main.c        ****        
 188:main.c        ****         sprintf(UART_buffer,"tx Byte %d: %d \n\r",i,txBuffer[i]);
 189:main.c        ****         UART_1_PutString(UART_buffer);
 190:main.c        ****     }
 191:main.c        ****     */
 192:main.c        ****     
 193:main.c        ****     time_temp = 0;
 304              		.loc 1 193 0
 305 0050 0022     		movs	r2, #0
 306 0052 0023     		movs	r3, #0
 307 0054 C4E90223 		strd	r2, [r4, #8]
 194:main.c        ****     
 195:main.c        ****     loadToSpecificTxBufferIndex(txBuffer,MESSAGE_TYPE_ID_INDEX,LIVE_DATA_TRANSMISSION);
 308              		.loc 1 195 0
 309 0058 6422     		movs	r2, #100
ARM GAS  C:\Users\sebbe\AppData\Local\Temp\ccx6NImA.s 			page 10


 310 005a 0021     		movs	r1, #0
 311 005c 2846     		mov	r0, r5
 312 005e FFF7FEFF 		bl	loadToSpecificTxBufferIndex
 313              	.LVL38:
 196:main.c        ****     loadToSpecificTxBufferIndex(txBuffer,SPEED_INDEX,speed);
 314              		.loc 1 196 0
 315 0062 227C     		ldrb	r2, [r4, #16]	@ zero_extendqisi2
 316 0064 0121     		movs	r1, #1
 317 0066 2846     		mov	r0, r5
 318 0068 FFF7FEFF 		bl	loadToSpecificTxBufferIndex
 319              	.LVL39:
 197:main.c        ****     loadToSpecificTxBufferIndex(txBuffer,DISTANCE_INDEX,dist);
 320              		.loc 1 197 0
 321 006c 2278     		ldrb	r2, [r4]	@ zero_extendqisi2
 322 006e 0221     		movs	r1, #2
 323 0070 2846     		mov	r0, r5
 324 0072 FFF7FEFF 		bl	loadToSpecificTxBufferIndex
 325              	.LVL40:
 198:main.c        ****     createParityBits(txBuffer,4);
 326              		.loc 1 198 0
 327 0076 0421     		movs	r1, #4
 328 0078 2846     		mov	r0, r5
 329 007a FFF7FEFF 		bl	createParityBits
 330              	.LVL41:
 199:main.c        ****     transferIsReady(txBuffer);
 331              		.loc 1 199 0
 332 007e 2846     		mov	r0, r5
 333 0080 FFF7FEFF 		bl	transferIsReady
 334              	.LVL42:
 200:main.c        ****     
 201:main.c        ****     WheelTickPin_ClearInterrupt();
 335              		.loc 1 201 0
 336 0084 FFF7FEFF 		bl	WheelTickPin_ClearInterrupt
 337              	.LVL43:
 338 0088 70BD     		pop	{r4, r5, r6, pc}
 339              	.L24:
 340 008a 00BFAFF3 		.align	3
 340      0080
 341              	.L23:
 342 0090 00000000 		.word	0
 343 0094 0070A740 		.word	1084715008
 344 0098 00000000 		.word	.LANCHOR1
 345 009c 00000000 		.word	.LANCHOR0
 346              		.cfi_endproc
 347              	.LFE67:
 348              		.size	isr_wheel_tick_Handler, .-isr_wheel_tick_Handler
 349              		.section	.text.Timer_Isr_BikeIsStopping_handler,"ax",%progbits
 350              		.align	2
 351              		.global	Timer_Isr_BikeIsStopping_handler
 352              		.thumb
 353              		.thumb_func
 354              		.type	Timer_Isr_BikeIsStopping_handler, %function
 355              	Timer_Isr_BikeIsStopping_handler:
 356              	.LFB68:
 202:main.c        **** }
 203:main.c        **** /************************definition of Counter ISR*************************/
 204:main.c        **** CY_ISR( Timer_Isr_BikeIsStopping_handler )
ARM GAS  C:\Users\sebbe\AppData\Local\Temp\ccx6NImA.s 			page 11


 205:main.c        **** {   
 357              		.loc 1 205 0
 358              		.cfi_startproc
 359              		@ args = 0, pretend = 0, frame = 0
 360              		@ frame_needed = 0, uses_anonymous_args = 0
 361 0000 38B5     		push	{r3, r4, r5, lr}
 362              		.cfi_def_cfa_offset 16
 363              		.cfi_offset 3, -16
 364              		.cfi_offset 4, -12
 365              		.cfi_offset 5, -8
 366              		.cfi_offset 14, -4
 206:main.c        ****     setSpeedToZero(&speed);
 367              		.loc 1 206 0
 368 0002 0F4D     		ldr	r5, .L27
 369 0004 05F11000 		add	r0, r5, #16
 370 0008 FFF7FEFF 		bl	setSpeedToZero
 371              	.LVL44:
 207:main.c        ****        
 208:main.c        ****     loadToSpecificTxBufferIndex(txBuffer,MESSAGE_TYPE_ID_INDEX,LIVE_DATA_TRANSMISSION);
 372              		.loc 1 208 0
 373 000c 0D4C     		ldr	r4, .L27+4
 374 000e 6422     		movs	r2, #100
 375 0010 0021     		movs	r1, #0
 376 0012 2046     		mov	r0, r4
 377 0014 FFF7FEFF 		bl	loadToSpecificTxBufferIndex
 378              	.LVL45:
 209:main.c        ****     loadToSpecificTxBufferIndex(txBuffer,SPEED_INDEX,speed);
 379              		.loc 1 209 0
 380 0018 2A7C     		ldrb	r2, [r5, #16]	@ zero_extendqisi2
 381 001a 0121     		movs	r1, #1
 382 001c 2046     		mov	r0, r4
 383 001e FFF7FEFF 		bl	loadToSpecificTxBufferIndex
 384              	.LVL46:
 210:main.c        ****     loadToSpecificTxBufferIndex(txBuffer,DISTANCE_INDEX,dist);
 385              		.loc 1 210 0
 386 0022 2A78     		ldrb	r2, [r5]	@ zero_extendqisi2
 387 0024 0221     		movs	r1, #2
 388 0026 2046     		mov	r0, r4
 389 0028 FFF7FEFF 		bl	loadToSpecificTxBufferIndex
 390              	.LVL47:
 211:main.c        ****     createParityBits(txBuffer,4);
 391              		.loc 1 211 0
 392 002c 0421     		movs	r1, #4
 393 002e 2046     		mov	r0, r4
 394 0030 FFF7FEFF 		bl	createParityBits
 395              	.LVL48:
 212:main.c        ****     transferIsReady(txBuffer);
 396              		.loc 1 212 0
 397 0034 2046     		mov	r0, r4
 398 0036 FFF7FEFF 		bl	transferIsReady
 399              	.LVL49:
 213:main.c        **** 
 214:main.c        ****     
 215:main.c        ****     //debug
 216:main.c        ****     
 217:main.c        ****     //UART_1_PutString("\n\rBike is Stopping\n");
 218:main.c        ****     /*
ARM GAS  C:\Users\sebbe\AppData\Local\Temp\ccx6NImA.s 			page 12


 219:main.c        ****         UART_1_PutString("printing tx buffer before send\n\r");
 220:main.c        ****             for (uint32_t i = 0; i < maxMessageLength; i++)
 221:main.c        ****             {
 222:main.c        ****        
 223:main.c        ****                 sprintf(UART_buffer,"tx Byte %d: %d \n\r",i,txBuffer[i]);
 224:main.c        ****                 UART_1_PutString(UART_buffer);
 225:main.c        ****                 
 226:main.c        ****             }
 227:main.c        ****     
 228:main.c        ****     transferIsReady(txBuffer);
 229:main.c        ****     
 230:main.c        ****     UART_1_PutString("printing tx clone buffer before after transferisready\n\r");
 231:main.c        ****             for (uint32_t i = 0; i < maxMessageLength; i++)
 232:main.c        ****             {
 233:main.c        ****        
 234:main.c        ****                 sprintf(UART_buffer,"tx Byte %d: %d \n\r",i,txCloneBuffer[i]);
 235:main.c        ****                 UART_1_PutString(UART_buffer);
 236:main.c        ****                 
 237:main.c        ****             }
 238:main.c        ****     //    sprintf(UART_buffer,"\n\rSpeed calc read: %d\n",speed);
 239:main.c        ****     //    UART_1_PutString(UART_buffer);
 240:main.c        ****     
 241:main.c        ****     UART_1_PutString("printing tx buffer in bikeisstoppinghandler\n\r");
 242:main.c        ****     for (uint32_t i = 0; i < maxMessageLength; i++)
 243:main.c        ****     {
 244:main.c        ****        
 245:main.c        ****         sprintf(UART_buffer,"tx Byte %d: %d \n\r",i,txBuffer[i]);
 246:main.c        ****         UART_1_PutString(UART_buffer);
 247:main.c        ****     }
 248:main.c        ****     */
 249:main.c        ****     
 250:main.c        ****     WheelTickTimer_ReadStatusRegister();
 400              		.loc 1 250 0
 401 003a FFF7FEFF 		bl	WheelTickTimer_ReadStatusRegister
 402              	.LVL50:
 403 003e 38BD     		pop	{r3, r4, r5, pc}
 404              	.L28:
 405              		.align	2
 406              	.L27:
 407 0040 00000000 		.word	.LANCHOR1
 408 0044 00000000 		.word	.LANCHOR0
 409              		.cfi_endproc
 410              	.LFE68:
 411              		.size	Timer_Isr_BikeIsStopping_handler, .-Timer_Isr_BikeIsStopping_handler
 412              		.section	.text.UART_rx_interrupt_handler,"ax",%progbits
 413              		.align	2
 414              		.global	UART_rx_interrupt_handler
 415              		.thumb
 416              		.thumb_func
 417              		.type	UART_rx_interrupt_handler, %function
 418              	UART_rx_interrupt_handler:
 419              	.LFB69:
 251:main.c        **** }
 252:main.c        **** 
 253:main.c        **** /************************definition of UART ISR*************************/
 254:main.c        **** 
 255:main.c        **** CY_ISR(UART_rx_interrupt_handler)
ARM GAS  C:\Users\sebbe\AppData\Local\Temp\ccx6NImA.s 			page 13


 256:main.c        **** {
 420              		.loc 1 256 0
 421              		.cfi_startproc
 422              		@ args = 0, pretend = 0, frame = 0
 423              		@ frame_needed = 0, uses_anonymous_args = 0
 424 0000 10B5     		push	{r4, lr}
 425              		.cfi_def_cfa_offset 8
 426              		.cfi_offset 4, -8
 427              		.cfi_offset 14, -4
 257:main.c        ****    uint8_t bytesToRead = UART_1_GetRxBufferSize();
 428              		.loc 1 257 0
 429 0002 FFF7FEFF 		bl	UART_1_GetRxBufferSize
 430              	.LVL51:
 431 0006 0446     		mov	r4, r0
 432              	.LVL52:
 258:main.c        ****     while (bytesToRead > 0)
 433              		.loc 1 258 0
 434 0008 05E0     		b	.L30
 435              	.L31:
 436              	.LBB2:
 259:main.c        ****     {
 260:main.c        ****         uint8_t byteReceived = UART_1_ReadRxData();
 437              		.loc 1 260 0
 438 000a FFF7FEFF 		bl	UART_1_ReadRxData
 439              	.LVL53:
 261:main.c        ****         UART_1_WriteTxData(byteReceived); // echo back
 440              		.loc 1 261 0
 441 000e FFF7FEFF 		bl	UART_1_WriteTxData
 442              	.LVL54:
 262:main.c        ****         bytesToRead--;
 443              		.loc 1 262 0
 444 0012 013C     		subs	r4, r4, #1
 445              	.LVL55:
 446 0014 E4B2     		uxtb	r4, r4
 447              	.LVL56:
 448              	.L30:
 449              	.LBE2:
 258:main.c        ****     {
 450              		.loc 1 258 0
 451 0016 002C     		cmp	r4, #0
 452 0018 F7D1     		bne	.L31
 263:main.c        ****     }
 264:main.c        **** }
 453              		.loc 1 264 0
 454 001a 10BD     		pop	{r4, pc}
 455              		.cfi_endproc
 456              	.LFE69:
 457              		.size	UART_rx_interrupt_handler, .-UART_rx_interrupt_handler
 458              		.section	.text.bike_is_idle_handler,"ax",%progbits
 459              		.align	2
 460              		.global	bike_is_idle_handler
 461              		.thumb
 462              		.thumb_func
 463              		.type	bike_is_idle_handler, %function
 464              	bike_is_idle_handler:
 465              	.LFB70:
 265:main.c        **** 
ARM GAS  C:\Users\sebbe\AppData\Local\Temp\ccx6NImA.s 			page 14


 266:main.c        **** /************************Accelerometer interupt routines *********/
 267:main.c        **** 
 268:main.c        **** CY_ISR(bike_is_idle_handler)
 269:main.c        **** {
 466              		.loc 1 269 0
 467              		.cfi_startproc
 468              		@ args = 0, pretend = 0, frame = 0
 469              		@ frame_needed = 0, uses_anonymous_args = 0
 470 0000 10B5     		push	{r4, lr}
 471              		.cfi_def_cfa_offset 8
 472              		.cfi_offset 4, -8
 473              		.cfi_offset 14, -4
 270:main.c        ****     Pin_2_ac_moving_ClearInterrupt();
 474              		.loc 1 270 0
 475 0002 FFF7FEFF 		bl	Pin_2_ac_moving_ClearInterrupt
 476              	.LVL57:
 271:main.c        ****     isr_bike_is_idle_ClearPending();
 477              		.loc 1 271 0
 478 0006 FFF7FEFF 		bl	isr_bike_is_idle_ClearPending
 479              	.LVL58:
 480              	.LBB3:
 272:main.c        ****       for (uint8_t i = 0; i < 10; i++)           
 481              		.loc 1 272 0
 482 000a 0024     		movs	r4, #0
 483 000c 0DE0     		b	.L34
 484              	.LVL59:
 485              	.L35:
 273:main.c        ****     {
 274:main.c        ****         LED_pin_Write(1);
 486              		.loc 1 274 0 discriminator 3
 487 000e 0120     		movs	r0, #1
 488 0010 FFF7FEFF 		bl	LED_pin_Write
 489              	.LVL60:
 275:main.c        ****         CyDelay(50);
 490              		.loc 1 275 0 discriminator 3
 491 0014 3220     		movs	r0, #50
 492 0016 FFF7FEFF 		bl	CyDelay
 493              	.LVL61:
 276:main.c        ****         LED_pin_Write(0);              
 494              		.loc 1 276 0 discriminator 3
 495 001a 0020     		movs	r0, #0
 496 001c FFF7FEFF 		bl	LED_pin_Write
 497              	.LVL62:
 277:main.c        ****         CyDelay(50);
 498              		.loc 1 277 0 discriminator 3
 499 0020 3220     		movs	r0, #50
 500 0022 FFF7FEFF 		bl	CyDelay
 501              	.LVL63:
 272:main.c        ****     {
 502              		.loc 1 272 0 discriminator 3
 503 0026 0134     		adds	r4, r4, #1
 504              	.LVL64:
 505 0028 E4B2     		uxtb	r4, r4
 506              	.LVL65:
 507              	.L34:
 272:main.c        ****     {
 508              		.loc 1 272 0 is_stmt 0 discriminator 1
ARM GAS  C:\Users\sebbe\AppData\Local\Temp\ccx6NImA.s 			page 15


 509 002a 092C     		cmp	r4, #9
 510 002c EFD9     		bls	.L35
 511              	.LBE3:
 278:main.c        ****     }
 279:main.c        ****     //UART_1_PutString("\r\n idle handler\n");
 280:main.c        ****     
 281:main.c        ****     startAccelerometerTimer();
 512              		.loc 1 281 0 is_stmt 1
 513 002e FFF7FEFF 		bl	startAccelerometerTimer
 514              	.LVL66:
 282:main.c        ****     resetAccelerometerTimer();
 515              		.loc 1 282 0
 516 0032 FFF7FEFF 		bl	resetAccelerometerTimer
 517              	.LVL67:
 283:main.c        ****     Pin_1_ac_idle_ClearInterrupt();
 518              		.loc 1 283 0
 519 0036 FFF7FEFF 		bl	Pin_1_ac_idle_ClearInterrupt
 520              	.LVL68:
 521 003a 10BD     		pop	{r4, pc}
 522              		.cfi_endproc
 523              	.LFE70:
 524              		.size	bike_is_idle_handler, .-bike_is_idle_handler
 525              		.section	.text.bike_is_moving_handler,"ax",%progbits
 526              		.align	2
 527              		.global	bike_is_moving_handler
 528              		.thumb
 529              		.thumb_func
 530              		.type	bike_is_moving_handler, %function
 531              	bike_is_moving_handler:
 532              	.LFB71:
 284:main.c        ****     
 285:main.c        **** }
 286:main.c        **** 
 287:main.c        **** CY_ISR(bike_is_moving_handler)
 288:main.c        **** {
 533              		.loc 1 288 0
 534              		.cfi_startproc
 535              		@ args = 0, pretend = 0, frame = 0
 536              		@ frame_needed = 0, uses_anonymous_args = 0
 537 0000 08B5     		push	{r3, lr}
 538              		.cfi_def_cfa_offset 8
 539              		.cfi_offset 3, -8
 540              		.cfi_offset 14, -4
 289:main.c        ****     LED_pin_Write(1);
 541              		.loc 1 289 0
 542 0002 0120     		movs	r0, #1
 543 0004 FFF7FEFF 		bl	LED_pin_Write
 544              	.LVL69:
 290:main.c        ****     CyDelay(200);
 545              		.loc 1 290 0
 546 0008 C820     		movs	r0, #200
 547 000a FFF7FEFF 		bl	CyDelay
 548              	.LVL70:
 291:main.c        ****     LED_pin_Write(0);   
 549              		.loc 1 291 0
 550 000e 0020     		movs	r0, #0
 551 0010 FFF7FEFF 		bl	LED_pin_Write
ARM GAS  C:\Users\sebbe\AppData\Local\Temp\ccx6NImA.s 			page 16


 552              	.LVL71:
 292:main.c        ****     
 293:main.c        ****     //UART_1_PutString("\r\n moving handler\n");
 294:main.c        ****     stopAccelerometerTimer();
 553              		.loc 1 294 0
 554 0014 FFF7FEFF 		bl	stopAccelerometerTimer
 555              	.LVL72:
 295:main.c        ****     Pin_2_ac_moving_ClearInterrupt();
 556              		.loc 1 295 0
 557 0018 FFF7FEFF 		bl	Pin_2_ac_moving_ClearInterrupt
 558              	.LVL73:
 559 001c 08BD     		pop	{r3, pc}
 560              		.cfi_endproc
 561              	.LFE71:
 562              		.size	bike_is_moving_handler, .-bike_is_moving_handler
 563 001e 00BF     		.section	.text.bike_stopped_handler,"ax",%progbits
 564              		.align	2
 565              		.global	bike_stopped_handler
 566              		.thumb
 567              		.thumb_func
 568              		.type	bike_stopped_handler, %function
 569              	bike_stopped_handler:
 570              	.LFB72:
 296:main.c        **** }
 297:main.c        **** 
 298:main.c        **** CY_ISR(bike_stopped_handler)
 299:main.c        **** {
 571              		.loc 1 299 0
 572              		.cfi_startproc
 573              		@ args = 0, pretend = 0, frame = 0
 574              		@ frame_needed = 0, uses_anonymous_args = 0
 575 0000 10B5     		push	{r4, lr}
 576              		.cfi_def_cfa_offset 8
 577              		.cfi_offset 4, -8
 578              		.cfi_offset 14, -4
 579              	.LVL74:
 580              	.LBB4:
 300:main.c        ****     
 301:main.c        ****       for (uint8_t i = 0; i < 10; i++)           
 581              		.loc 1 301 0
 582 0002 0024     		movs	r4, #0
 583 0004 0DE0     		b	.L40
 584              	.LVL75:
 585              	.L41:
 302:main.c        ****     {
 303:main.c        ****         LED_pin_Write(1);
 586              		.loc 1 303 0 discriminator 3
 587 0006 0120     		movs	r0, #1
 588 0008 FFF7FEFF 		bl	LED_pin_Write
 589              	.LVL76:
 304:main.c        ****         CyDelay(200);
 590              		.loc 1 304 0 discriminator 3
 591 000c C820     		movs	r0, #200
 592 000e FFF7FEFF 		bl	CyDelay
 593              	.LVL77:
 305:main.c        ****         LED_pin_Write(0);              
 594              		.loc 1 305 0 discriminator 3
ARM GAS  C:\Users\sebbe\AppData\Local\Temp\ccx6NImA.s 			page 17


 595 0012 0020     		movs	r0, #0
 596 0014 FFF7FEFF 		bl	LED_pin_Write
 597              	.LVL78:
 306:main.c        ****         CyDelay(200);
 598              		.loc 1 306 0 discriminator 3
 599 0018 C820     		movs	r0, #200
 600 001a FFF7FEFF 		bl	CyDelay
 601              	.LVL79:
 301:main.c        ****     {
 602              		.loc 1 301 0 discriminator 3
 603 001e 0134     		adds	r4, r4, #1
 604              	.LVL80:
 605 0020 E4B2     		uxtb	r4, r4
 606              	.LVL81:
 607              	.L40:
 301:main.c        ****     {
 608              		.loc 1 301 0 is_stmt 0 discriminator 1
 609 0022 092C     		cmp	r4, #9
 610 0024 EFD9     		bls	.L41
 611              	.LBE4:
 307:main.c        ****     }
 308:main.c        ****     //UART_1_PutString("\r\nMotor Laases\n");
 309:main.c        ****     //lockBike();
 310:main.c        ****    
 311:main.c        ****     STATE=LOCKING;
 612              		.loc 1 311 0 is_stmt 1
 613 0026 6C20     		movs	r0, #108
 614 0028 034B     		ldr	r3, .L43
 615 002a 1871     		strb	r0, [r3, #4]
 312:main.c        ****     centralDispatcher(STATE);
 616              		.loc 1 312 0
 617 002c FFF7FEFF 		bl	centralDispatcher
 618              	.LVL82:
 313:main.c        ****     AccelerometerTimer_ReadStatusRegister();
 619              		.loc 1 313 0
 620 0030 FFF7FEFF 		bl	AccelerometerTimer_ReadStatusRegister
 621              	.LVL83:
 622 0034 10BD     		pop	{r4, pc}
 623              	.LVL84:
 624              	.L44:
 625 0036 00BF     		.align	2
 626              	.L43:
 627 0038 00000000 		.word	.LANCHOR0
 628              		.cfi_endproc
 629              	.LFE72:
 630              		.size	bike_stopped_handler, .-bike_stopped_handler
 631              		.section	.text.isr_bikelock,"ax",%progbits
 632              		.align	2
 633              		.global	isr_bikelock
 634              		.thumb
 635              		.thumb_func
 636              		.type	isr_bikelock, %function
 637              	isr_bikelock:
 638              	.LFB73:
 314:main.c        **** }
 315:main.c        **** 
 316:main.c        **** /********************interrupt routine for stopping motorized lock*********************/
ARM GAS  C:\Users\sebbe\AppData\Local\Temp\ccx6NImA.s 			page 18


 317:main.c        **** 
 318:main.c        **** CY_ISR(isr_bikelock)
 319:main.c        **** {
 639              		.loc 1 319 0
 640              		.cfi_startproc
 641              		@ args = 0, pretend = 0, frame = 0
 642              		@ frame_needed = 0, uses_anonymous_args = 0
 643 0000 08B5     		push	{r3, lr}
 644              		.cfi_def_cfa_offset 8
 645              		.cfi_offset 3, -8
 646              		.cfi_offset 14, -4
 320:main.c        ****     stopLockTimer();
 647              		.loc 1 320 0
 648 0002 FFF7FEFF 		bl	stopLockTimer
 649              	.LVL85:
 321:main.c        ****     In_1_Write(0);
 650              		.loc 1 321 0
 651 0006 0020     		movs	r0, #0
 652 0008 FFF7FEFF 		bl	In_1_Write
 653              	.LVL86:
 322:main.c        ****     In_2_Write(0);
 654              		.loc 1 322 0
 655 000c 0020     		movs	r0, #0
 656 000e FFF7FEFF 		bl	In_2_Write
 657              	.LVL87:
 323:main.c        ****     EA_Write(0);
 658              		.loc 1 323 0
 659 0012 0020     		movs	r0, #0
 660 0014 FFF7FEFF 		bl	EA_Write
 661              	.LVL88:
 324:main.c        ****     MotorLockTimer_ReadStatusRegister();
 662              		.loc 1 324 0
 663 0018 FFF7FEFF 		bl	MotorLockTimer_ReadStatusRegister
 664              	.LVL89:
 665 001c 08BD     		pop	{r3, pc}
 666              		.cfi_endproc
 667              	.LFE73:
 668              		.size	isr_bikelock, .-isr_bikelock
 669 001e 00BF     		.section	.text.main,"ax",%progbits
 670              		.align	2
 671              		.global	main
 672              		.thumb
 673              		.thumb_func
 674              		.type	main, %function
 675              	main:
 676              	.LFB74:
 325:main.c        **** }
 326:main.c        **** 
 327:main.c        **** 
 328:main.c        **** /************************main*************************/
 329:main.c        **** int main(void)
 330:main.c        **** {
 677              		.loc 1 330 0
 678              		.cfi_startproc
 679              		@ args = 0, pretend = 0, frame = 0
 680              		@ frame_needed = 0, uses_anonymous_args = 0
 681 0000 10B5     		push	{r4, lr}
ARM GAS  C:\Users\sebbe\AppData\Local\Temp\ccx6NImA.s 			page 19


 682              		.cfi_def_cfa_offset 8
 683              		.cfi_offset 4, -8
 684              		.cfi_offset 14, -4
 685              	.LVL90:
 686              	.LBB5:
 331:main.c        ****     //indicating start of test program.
 332:main.c        ****     for (uint8_t i = 0; i < 10; i++)           
 687              		.loc 1 332 0
 688 0002 0024     		movs	r4, #0
 689 0004 0DE0     		b	.L48
 690              	.LVL91:
 691              	.L49:
 333:main.c        ****     {
 334:main.c        ****         LED_pin_Write(1);
 692              		.loc 1 334 0 discriminator 3
 693 0006 0120     		movs	r0, #1
 694 0008 FFF7FEFF 		bl	LED_pin_Write
 695              	.LVL92:
 335:main.c        ****         CyDelay(50);
 696              		.loc 1 335 0 discriminator 3
 697 000c 3220     		movs	r0, #50
 698 000e FFF7FEFF 		bl	CyDelay
 699              	.LVL93:
 336:main.c        ****         LED_pin_Write(0);              
 700              		.loc 1 336 0 discriminator 3
 701 0012 0020     		movs	r0, #0
 702 0014 FFF7FEFF 		bl	LED_pin_Write
 703              	.LVL94:
 337:main.c        ****         CyDelay(50);
 704              		.loc 1 337 0 discriminator 3
 705 0018 3220     		movs	r0, #50
 706 001a FFF7FEFF 		bl	CyDelay
 707              	.LVL95:
 332:main.c        ****     {
 708              		.loc 1 332 0 discriminator 3
 709 001e 0134     		adds	r4, r4, #1
 710              	.LVL96:
 711 0020 E4B2     		uxtb	r4, r4
 712              	.LVL97:
 713              	.L48:
 332:main.c        ****     {
 714              		.loc 1 332 0 is_stmt 0 discriminator 1
 715 0022 092C     		cmp	r4, #9
 716 0024 EFD9     		bls	.L49
 717              	.LBE5:
 338:main.c        ****     }
 339:main.c        ****     
 340:main.c        ****     CyGlobalIntEnable; /* Enable global interrupts. */
 718              		.loc 1 340 0 is_stmt 1
 719              		.syntax unified
 720              	@ 340 "main.c" 1
 721 0026 62B6     		CPSIE   i
 722              	@ 0 "" 2
 341:main.c        ****     
 342:main.c        ****     initUART();
 723              		.loc 1 342 0
 724              		.thumb
ARM GAS  C:\Users\sebbe\AppData\Local\Temp\ccx6NImA.s 			page 20


 725              		.syntax unified
 726 0028 FFF7FEFF 		bl	initUART
 727              	.LVL98:
 343:main.c        ****     initSPI();
 728              		.loc 1 343 0
 729 002c FFF7FEFF 		bl	initSPI
 730              	.LVL99:
 344:main.c        ****     initWheelSensor();
 731              		.loc 1 344 0
 732 0030 FFF7FEFF 		bl	initWheelSensor
 733              	.LVL100:
 345:main.c        ****     init_accelerometer();
 734              		.loc 1 345 0
 735 0034 FFF7FEFF 		bl	init_accelerometer
 736              	.LVL101:
 346:main.c        ****     initLockUnit();
 737              		.loc 1 346 0
 738 0038 FFF7FEFF 		bl	initLockUnit
 739              	.LVL102:
 740              	.L50:
 741 003c FEE7     		b	.L50
 742              		.cfi_endproc
 743              	.LFE74:
 744              		.size	main, .-main
 745              		.global	wheelCirc
 746              		.global	wheelRadius
 747              		.global	time_temp
 748              		.global	dist
 749              		.global	speed
 750              		.global	wheel_revolutions
 751              		.comm	UART_buffer,16,4
 752              		.comm	txCloneBuffer,24,4
 753              		.global	txBuffer
 754              		.global	rxBuffer
 755              		.global	STATE
 756 003e 00BF     		.data
 757              		.align	3
 758              		.set	.LANCHOR0,. + 0
 759              		.type	txBuffer, %object
 760              		.size	txBuffer, 4
 761              	txBuffer:
 762 0000 23       		.byte	35
 763 0001 23       		.byte	35
 764 0002 23       		.byte	35
 765 0003 23       		.byte	35
 766              		.type	STATE, %object
 767              		.size	STATE, 1
 768              	STATE:
 769 0004 6F       		.byte	111
 770 0005 000000   		.space	3
 771              		.type	wheelCirc, %object
 772              		.size	wheelCirc, 8
 773              	wheelCirc:
 774 0008 B7EEE6A9 		.word	-1444483401
 775 000c 0EB9693F 		.word	1063893262
 776              		.type	rxBuffer, %object
 777              		.size	rxBuffer, 4
ARM GAS  C:\Users\sebbe\AppData\Local\Temp\ccx6NImA.s 			page 21


 778              	rxBuffer:
 779 0010 23       		.byte	35
 780 0011 23       		.byte	35
 781 0012 23       		.byte	35
 782 0013 23       		.byte	35
 783 0014 00000000 		.space	4
 784              		.type	wheelRadius, %object
 785              		.size	wheelRadius, 8
 786              	wheelRadius:
 787 0018 00000000 		.word	0
 788 001c 00003940 		.word	1077477376
 789              		.bss
 790              		.align	3
 791              		.set	.LANCHOR1,. + 0
 792              		.type	dist, %object
 793              		.size	dist, 1
 794              	dist:
 795 0000 00       		.space	1
 796 0001 000000   		.space	3
 797              		.type	wheel_revolutions, %object
 798              		.size	wheel_revolutions, 4
 799              	wheel_revolutions:
 800 0004 00000000 		.space	4
 801              		.type	time_temp, %object
 802              		.size	time_temp, 8
 803              	time_temp:
 804 0008 00000000 		.space	8
 804      00000000 
 805              		.type	speed, %object
 806              		.size	speed, 1
 807              	speed:
 808 0010 00       		.space	1
 809              		.text
 810              	.Letext0:
 811              		.file 2 "c:\\program files (x86)\\cypress\\psoc creator\\4.2\\psoc creator\\import\\gnu\\arm\\5.4.
 812              		.file 3 "c:\\program files (x86)\\cypress\\psoc creator\\4.2\\psoc creator\\import\\gnu\\arm\\5.4.
 813              		.file 4 "Generated_Source\\PSoC5/cytypes.h"
 814              		.file 5 "EDBikeProtocol.h"
 815              		.file 6 "SPIprotocol.h"
 816              		.file 7 "Generated_Source\\PSoC5/core_cm3.h"
 817              		.file 8 "lockUnit.h"
 818              		.file 9 "Generated_Source\\PSoC5/LED_pin.h"
 819              		.file 10 "SPI.h"
 820              		.file 11 "Generated_Source\\PSoC5/isr_bike_is_idle.h"
 821              		.file 12 "Accelerometer.h"
 822              		.file 13 "wheelSensor.h"
 823              		.file 14 "Generated_Source\\PSoC5/WheelTickTimer.h"
 824              		.file 15 "Generated_Source\\PSoC5/WheelTickPin.h"
 825              		.file 16 "Generated_Source\\PSoC5/UART_1.h"
 826              		.file 17 "Generated_Source\\PSoC5/CyLib.h"
 827              		.file 18 "Generated_Source\\PSoC5/Pin_2_ac_moving.h"
 828              		.file 19 "Generated_Source\\PSoC5/Pin_1_ac_idle.h"
 829              		.file 20 "Generated_Source\\PSoC5/AccelerometerTimer.h"
 830              		.file 21 "Generated_Source\\PSoC5/In_1.h"
 831              		.file 22 "Generated_Source\\PSoC5/In_2.h"
 832              		.file 23 "Generated_Source\\PSoC5/EA.h"
 833              		.file 24 "Generated_Source\\PSoC5/MotorLockTimer.h"
ARM GAS  C:\Users\sebbe\AppData\Local\Temp\ccx6NImA.s 			page 22


 834              		.file 25 "UART.h"