ARM GAS  C:\Users\KRISTI~1\AppData\Local\Temp\cc6twe0z.s 			page 1


   1              		.syntax unified
   2              		.cpu cortex-m3
   3              		.fpu softvfp
   4              		.eabi_attribute 20, 1
   5              		.eabi_attribute 21, 1
   6              		.eabi_attribute 23, 3
   7              		.eabi_attribute 24, 1
   8              		.eabi_attribute 25, 1
   9              		.eabi_attribute 26, 1
  10              		.eabi_attribute 30, 1
  11              		.eabi_attribute 34, 1
  12              		.eabi_attribute 18, 4
  13              		.thumb
  14              		.syntax unified
  15              		.file	"sensorCalc.c"
  16              		.text
  17              	.Ltext0:
  18              		.cfi_sections	.debug_frame
  19              		.global	__aeabi_i2d
  20              		.global	__aeabi_dmul
  21              		.global	__aeabi_dadd
  22              		.global	__aeabi_ddiv
  23              		.section	.text.calcDistance,"ax",%progbits
  24              		.align	2
  25              		.global	calcDistance
  26              		.thumb
  27              		.thumb_func
  28              		.type	calcDistance, %function
  29              	calcDistance:
  30              	.LFB64:
  31              		.file 1 "sensorCalc.c"
   1:sensorCalc.c  **** /* ========================================
   2:sensorCalc.c  ****  *
   3:sensorCalc.c  ****  * Copyright YOUR COMPANY, THE YEAR
   4:sensorCalc.c  ****  * All Rights Reserved
   5:sensorCalc.c  ****  * UNPUBLISHED, LICENSED SOFTWARE.
   6:sensorCalc.c  ****  *
   7:sensorCalc.c  ****  * CONFIDENTIAL AND PROPRIETARY INFORMATION
   8:sensorCalc.c  ****  * WHICH IS THE PROPERTY OF your company.
   9:sensorCalc.c  ****  *
  10:sensorCalc.c  ****  * ========================================
  11:sensorCalc.c  **** */
  12:sensorCalc.c  **** #include "sensorCalc.h"
  13:sensorCalc.c  **** 
  14:sensorCalc.c  **** 
  15:sensorCalc.c  **** 
  16:sensorCalc.c  **** double calcDistance(int WR, double wheelSize)
  17:sensorCalc.c  ****    {
  32              		.loc 1 17 0
  33              		.cfi_startproc
  34              		@ args = 0, pretend = 0, frame = 0
  35              		@ frame_needed = 0, uses_anonymous_args = 0
  36              	.LVL0:
  37 0000 38B5     		push	{r3, r4, r5, lr}
  38              		.cfi_def_cfa_offset 16
  39              		.cfi_offset 3, -16
  40              		.cfi_offset 4, -12
ARM GAS  C:\Users\KRISTI~1\AppData\Local\Temp\cc6twe0z.s 			page 2


  41              		.cfi_offset 5, -8
  42              		.cfi_offset 14, -4
  43 0002 1446     		mov	r4, r2
  44 0004 1D46     		mov	r5, r3
  18:sensorCalc.c  ****         double dist = (WR * wheelSize * 3.14 * 2)/1000; 
  45              		.loc 1 18 0
  46 0006 FFF7FEFF 		bl	__aeabi_i2d
  47              	.LVL1:
  48 000a 2246     		mov	r2, r4
  49 000c 2B46     		mov	r3, r5
  50 000e FFF7FEFF 		bl	__aeabi_dmul
  51              	.LVL2:
  52 0012 07A3     		adr	r3, .L3
  53 0014 D3E90023 		ldrd	r2, [r3]
  54 0018 FFF7FEFF 		bl	__aeabi_dmul
  55              	.LVL3:
  56 001c 0246     		mov	r2, r0
  57 001e 0B46     		mov	r3, r1
  58 0020 FFF7FEFF 		bl	__aeabi_dadd
  59              	.LVL4:
  60 0024 0022     		movs	r2, #0
  61 0026 044B     		ldr	r3, .L3+8
  62 0028 FFF7FEFF 		bl	__aeabi_ddiv
  63              	.LVL5:
  19:sensorCalc.c  ****         
  20:sensorCalc.c  ****         return dist;
  21:sensorCalc.c  ****    } 
  64              		.loc 1 21 0
  65 002c 38BD     		pop	{r3, r4, r5, pc}
  66              	.L4:
  67 002e 00BF     		.align	3
  68              	.L3:
  69 0030 1F85EB51 		.word	1374389535
  70 0034 B81E0940 		.word	1074339512
  71 0038 00408F40 		.word	1083129856
  72              		.cfi_endproc
  73              	.LFE64:
  74              		.size	calcDistance, .-calcDistance
  75              		.section	.text.calcSpeed,"ax",%progbits
  76              		.align	2
  77              		.global	calcSpeed
  78              		.thumb
  79              		.thumb_func
  80              		.type	calcSpeed, %function
  81              	calcSpeed:
  82              	.LFB65:
  22:sensorCalc.c  ****     
  23:sensorCalc.c  **** double calcSpeed(double time_ms, double dist)
  24:sensorCalc.c  ****     {
  83              		.loc 1 24 0
  84              		.cfi_startproc
  85              		@ args = 0, pretend = 0, frame = 0
  86              		@ frame_needed = 0, uses_anonymous_args = 0
  87              	.LVL6:
  88 0000 38B5     		push	{r3, r4, r5, lr}
  89              		.cfi_def_cfa_offset 16
  90              		.cfi_offset 3, -16
ARM GAS  C:\Users\KRISTI~1\AppData\Local\Temp\cc6twe0z.s 			page 3


  91              		.cfi_offset 4, -12
  92              		.cfi_offset 5, -8
  93              		.cfi_offset 14, -4
  94 0002 1446     		mov	r4, r2
  95 0004 1D46     		mov	r5, r3
  25:sensorCalc.c  ****         double time_temp = time_ms/3600000;
  96              		.loc 1 25 0
  97 0006 06A3     		adr	r3, .L7
  98 0008 D3E90023 		ldrd	r2, [r3]
  99              	.LVL7:
 100 000c FFF7FEFF 		bl	__aeabi_ddiv
 101              	.LVL8:
  26:sensorCalc.c  ****         double  speed = dist/time_temp;
 102              		.loc 1 26 0
 103 0010 0246     		mov	r2, r0
 104 0012 0B46     		mov	r3, r1
 105 0014 2046     		mov	r0, r4
 106              	.LVL9:
 107 0016 2946     		mov	r1, r5
 108 0018 FFF7FEFF 		bl	__aeabi_ddiv
 109              	.LVL10:
  27:sensorCalc.c  ****     
  28:sensorCalc.c  ****         return speed;    
  29:sensorCalc.c  ****     }    
 110              		.loc 1 29 0
 111 001c 38BD     		pop	{r3, r4, r5, pc}
 112              	.L8:
 113 001e 00BF     		.align	3
 114              	.L7:
 115 0020 00000000 		.word	0
 116 0024 40774B41 		.word	1095464768
 117              		.cfi_endproc
 118              	.LFE65:
 119              		.size	calcSpeed, .-calcSpeed
 120              		.global	__aeabi_ui2d
 121              		.section	.text.WheelRadiusToMetres,"ax",%progbits
 122              		.align	2
 123              		.global	WheelRadiusToMetres
 124              		.thumb
 125              		.thumb_func
 126              		.type	WheelRadiusToMetres, %function
 127              	WheelRadiusToMetres:
 128              	.LFB66:
  30:sensorCalc.c  **** 
  31:sensorCalc.c  **** double WheelRadiusToMetres(uint8 userInputInCentimeters)
  32:sensorCalc.c  ****     {
 129              		.loc 1 32 0
 130              		.cfi_startproc
 131              		@ args = 0, pretend = 0, frame = 0
 132              		@ frame_needed = 0, uses_anonymous_args = 0
 133              	.LVL11:
 134 0000 08B5     		push	{r3, lr}
 135              		.cfi_def_cfa_offset 8
 136              		.cfi_offset 3, -8
 137              		.cfi_offset 14, -4
  33:sensorCalc.c  ****         double wheelRadiusInMeters = (double)userInputInCentimeters/100;
 138              		.loc 1 33 0
ARM GAS  C:\Users\KRISTI~1\AppData\Local\Temp\cc6twe0z.s 			page 4


 139 0002 FFF7FEFF 		bl	__aeabi_ui2d
 140              	.LVL12:
 141 0006 0022     		movs	r2, #0
 142 0008 014B     		ldr	r3, .L11
 143 000a FFF7FEFF 		bl	__aeabi_ddiv
 144              	.LVL13:
  34:sensorCalc.c  ****     
  35:sensorCalc.c  ****         return wheelRadiusInMeters;
  36:sensorCalc.c  ****     }
 145              		.loc 1 36 0
 146 000e 08BD     		pop	{r3, pc}
 147              	.L12:
 148              		.align	2
 149              	.L11:
 150 0010 00005940 		.word	1079574528
 151              		.cfi_endproc
 152              	.LFE66:
 153              		.size	WheelRadiusToMetres, .-WheelRadiusToMetres
 154              		.section	.text.calcWheelCirc,"ax",%progbits
 155              		.align	2
 156              		.global	calcWheelCirc
 157              		.thumb
 158              		.thumb_func
 159              		.type	calcWheelCirc, %function
 160              	calcWheelCirc:
 161              	.LFB67:
  37:sensorCalc.c  **** 
  38:sensorCalc.c  **** double calcWheelCirc(double radius)
  39:sensorCalc.c  ****     {
 162              		.loc 1 39 0
 163              		.cfi_startproc
 164              		@ args = 0, pretend = 0, frame = 0
 165              		@ frame_needed = 0, uses_anonymous_args = 0
 166              	.LVL14:
 167 0000 08B5     		push	{r3, lr}
 168              		.cfi_def_cfa_offset 8
 169              		.cfi_offset 3, -8
 170              		.cfi_offset 14, -4
  40:sensorCalc.c  ****         double wheelCirc = (radius * 3.14 * 2)/1000;
 171              		.loc 1 40 0
 172 0002 07A3     		adr	r3, .L15
 173 0004 D3E90023 		ldrd	r2, [r3]
 174 0008 FFF7FEFF 		bl	__aeabi_dmul
 175              	.LVL15:
 176 000c 0246     		mov	r2, r0
 177 000e 0B46     		mov	r3, r1
 178 0010 FFF7FEFF 		bl	__aeabi_dadd
 179              	.LVL16:
 180 0014 0022     		movs	r2, #0
 181 0016 044B     		ldr	r3, .L15+8
 182 0018 FFF7FEFF 		bl	__aeabi_ddiv
 183              	.LVL17:
  41:sensorCalc.c  ****     
  42:sensorCalc.c  ****         return wheelCirc;
  43:sensorCalc.c  ****     }
 184              		.loc 1 43 0
 185 001c 08BD     		pop	{r3, pc}
ARM GAS  C:\Users\KRISTI~1\AppData\Local\Temp\cc6twe0z.s 			page 5


 186              	.L16:
 187 001e 00BF     		.align	3
 188              	.L15:
 189 0020 1F85EB51 		.word	1374389535
 190 0024 B81E0940 		.word	1074339512
 191 0028 00408F40 		.word	1083129856
 192              		.cfi_endproc
 193              	.LFE67:
 194              		.size	calcWheelCirc, .-calcWheelCirc
 195              		.text
 196              	.Letext0:
 197              		.file 2 "c:\\program files (x86)\\cypress\\psoc creator\\4.2\\psoc creator\\import\\gnu\\arm\\5.4.
 198              		.file 3 "c:\\program files (x86)\\cypress\\psoc creator\\4.2\\psoc creator\\import\\gnu\\arm\\5.4.
 199              		.file 4 "Generated_Source\\PSoC5/cytypes.h"
 200              		.file 5 "Generated_Source\\PSoC5/core_cm3.h"