ARM GAS  C:\Users\sebbe\AppData\Local\Temp\ccnvVvwR.s 			page 1


   1              		.syntax unified
   2              		.cpu cortex-m3
   3              		.fpu softvfp
   4              		.eabi_attribute 20, 1
   5              		.eabi_attribute 21, 1
   6              		.eabi_attribute 23, 3
   7              		.eabi_attribute 24, 1
   8              		.eabi_attribute 25, 1
   9              		.eabi_attribute 26, 1
  10              		.eabi_attribute 30, 1
  11              		.eabi_attribute 34, 1
  12              		.eabi_attribute 18, 4
  13              		.thumb
  14              		.syntax unified
  15              		.file	"SPI.c"
  16              		.text
  17              	.Ltext0:
  18              		.cfi_sections	.debug_frame
  19              		.section	.text.initSPI,"ax",%progbits
  20              		.align	2
  21              		.global	initSPI
  22              		.thumb
  23              		.thumb_func
  24              		.type	initSPI, %function
  25              	initSPI:
  26              	.LFB64:
  27              		.file 1 "SPI.c"
   1:SPI.c         **** /* ========================================
   2:SPI.c         ****  *
   3:SPI.c         ****  * Kristian Lau Jespersen
   4:SPI.c         ****  * 10/11-2019
   5:SPI.c         ****  * ========================================
   6:SPI.c         **** */
   7:SPI.c         **** #include "SPI.h"
   8:SPI.c         **** 
   9:SPI.c         **** extern uint8 txCloneBuffer[(maxMessageLength*6)];
  10:SPI.c         **** 
  11:SPI.c         **** 
  12:SPI.c         **** void initSPI()
  13:SPI.c         **** {
  28              		.loc 1 13 0
  29              		.cfi_startproc
  30              		@ args = 0, pretend = 0, frame = 0
  31              		@ frame_needed = 0, uses_anonymous_args = 0
  32 0000 08B5     		push	{r3, lr}
  33              		.cfi_def_cfa_offset 8
  34              		.cfi_offset 3, -8
  35              		.cfi_offset 14, -4
  14:SPI.c         ****     
  15:SPI.c         ****     SPI_slave_Start();
  36              		.loc 1 15 0
  37 0002 FFF7FEFF 		bl	SPI_slave_Start
  38              	.LVL0:
  16:SPI.c         ****     //interrupt pin is assigned the ISR function in parameter (see topDesign).
  17:SPI.c         ****     slave_rx_interrupt_StartEx(slave_rx_interrupt_handler); 
  39              		.loc 1 17 0
  40 0006 0348     		ldr	r0, .L3
ARM GAS  C:\Users\sebbe\AppData\Local\Temp\ccnvVvwR.s 			page 2


  41 0008 FFF7FEFF 		bl	slave_rx_interrupt_StartEx
  42              	.LVL1:
  18:SPI.c         ****     SPI_slave_ClearFIFO();
  43              		.loc 1 18 0
  44 000c FFF7FEFF 		bl	SPI_slave_ClearFIFO
  45              	.LVL2:
  46 0010 08BD     		pop	{r3, pc}
  47              	.L4:
  48 0012 00BF     		.align	2
  49              	.L3:
  50 0014 00000000 		.word	slave_rx_interrupt_handler
  51              		.cfi_endproc
  52              	.LFE64:
  53              		.size	initSPI, .-initSPI
  54              		.section	.text.terminateSPI,"ax",%progbits
  55              		.align	2
  56              		.global	terminateSPI
  57              		.thumb
  58              		.thumb_func
  59              		.type	terminateSPI, %function
  60              	terminateSPI:
  61              	.LFB65:
  19:SPI.c         **** }
  20:SPI.c         **** 
  21:SPI.c         **** void terminateSPI()
  22:SPI.c         **** {
  62              		.loc 1 22 0
  63              		.cfi_startproc
  64              		@ args = 0, pretend = 0, frame = 0
  65              		@ frame_needed = 0, uses_anonymous_args = 0
  66 0000 08B5     		push	{r3, lr}
  67              		.cfi_def_cfa_offset 8
  68              		.cfi_offset 3, -8
  69              		.cfi_offset 14, -4
  23:SPI.c         ****     SPI_slave_Stop();
  70              		.loc 1 23 0
  71 0002 FFF7FEFF 		bl	SPI_slave_Stop
  72              	.LVL3:
  73 0006 08BD     		pop	{r3, pc}
  74              		.cfi_endproc
  75              	.LFE65:
  76              		.size	terminateSPI, .-terminateSPI
  77              		.section	.text.receiveSPI,"ax",%progbits
  78              		.align	2
  79              		.global	receiveSPI
  80              		.thumb
  81              		.thumb_func
  82              		.type	receiveSPI, %function
  83              	receiveSPI:
  84              	.LFB66:
  24:SPI.c         **** }
  25:SPI.c         **** 
  26:SPI.c         **** void receiveSPI(uint8* rxBuffer)
  27:SPI.c         **** {
  85              		.loc 1 27 0
  86              		.cfi_startproc
  87              		@ args = 0, pretend = 0, frame = 0
ARM GAS  C:\Users\sebbe\AppData\Local\Temp\ccnvVvwR.s 			page 3


  88              		@ frame_needed = 0, uses_anonymous_args = 0
  89              	.LVL4:
  90 0000 38B5     		push	{r3, r4, r5, lr}
  91              		.cfi_def_cfa_offset 16
  92              		.cfi_offset 3, -16
  93              		.cfi_offset 4, -12
  94              		.cfi_offset 5, -8
  95              		.cfi_offset 14, -4
  96 0002 0546     		mov	r5, r0
  97              	.LVL5:
  28:SPI.c         ****     size_t i=0;
  98              		.loc 1 28 0
  99 0004 0024     		movs	r4, #0
  29:SPI.c         ****     while (SPI_slave_GetRxBufferSize()!=0)
 100              		.loc 1 29 0
 101 0006 03E0     		b	.L8
 102              	.LVL6:
 103              	.L9:
  30:SPI.c         ****     {
  31:SPI.c         ****         rxBuffer[i]=(uint8)SPI_slave_ReadRxData();
 104              		.loc 1 31 0
 105 0008 FFF7FEFF 		bl	SPI_slave_ReadRxData
 106              	.LVL7:
 107 000c 2855     		strb	r0, [r5, r4]
  32:SPI.c         ****         i++;
 108              		.loc 1 32 0
 109 000e 0134     		adds	r4, r4, #1
 110              	.LVL8:
 111              	.L8:
  29:SPI.c         ****     while (SPI_slave_GetRxBufferSize()!=0)
 112              		.loc 1 29 0
 113 0010 FFF7FEFF 		bl	SPI_slave_GetRxBufferSize
 114              	.LVL9:
 115 0014 0028     		cmp	r0, #0
 116 0016 F7D1     		bne	.L9
  33:SPI.c         ****     }
  34:SPI.c         ****     
  35:SPI.c         ****     SPI_slave_ClearRxBuffer();    
 117              		.loc 1 35 0
 118 0018 FFF7FEFF 		bl	SPI_slave_ClearRxBuffer
 119              	.LVL10:
 120 001c 38BD     		pop	{r3, r4, r5, pc}
 121              		.cfi_endproc
 122              	.LFE66:
 123              		.size	receiveSPI, .-receiveSPI
 124 001e 00BF     		.section	.text.loadToSpecificTxBufferIndex,"ax",%progbits
 125              		.align	2
 126              		.global	loadToSpecificTxBufferIndex
 127              		.thumb
 128              		.thumb_func
 129              		.type	loadToSpecificTxBufferIndex, %function
 130              	loadToSpecificTxBufferIndex:
 131              	.LFB67:
  36:SPI.c         **** }
  37:SPI.c         **** 
  38:SPI.c         **** void loadToSpecificTxBufferIndex(uint8* txBuffer, uint8 index, uint8 data)
  39:SPI.c         **** {
ARM GAS  C:\Users\sebbe\AppData\Local\Temp\ccnvVvwR.s 			page 4


 132              		.loc 1 39 0
 133              		.cfi_startproc
 134              		@ args = 0, pretend = 0, frame = 0
 135              		@ frame_needed = 0, uses_anonymous_args = 0
 136              		@ link register save eliminated.
 137              	.LVL11:
  40:SPI.c         ****     //SPI_slave_ClearTxBuffer();
  41:SPI.c         ****     txBuffer[index]=data;
 138              		.loc 1 41 0
 139 0000 4254     		strb	r2, [r0, r1]
 140 0002 7047     		bx	lr
 141              		.cfi_endproc
 142              	.LFE67:
 143              		.size	loadToSpecificTxBufferIndex, .-loadToSpecificTxBufferIndex
 144              		.section	.text.transferIsReady,"ax",%progbits
 145              		.align	2
 146              		.global	transferIsReady
 147              		.thumb
 148              		.thumb_func
 149              		.type	transferIsReady, %function
 150              	transferIsReady:
 151              	.LFB68:
  42:SPI.c         **** }
  43:SPI.c         **** 
  44:SPI.c         **** void transferIsReady(uint8* txBuffer)
  45:SPI.c         **** {
 152              		.loc 1 45 0
 153              		.cfi_startproc
 154              		@ args = 0, pretend = 0, frame = 0
 155              		@ frame_needed = 0, uses_anonymous_args = 0
 156              	.LVL12:
 157 0000 10B5     		push	{r4, lr}
 158              		.cfi_def_cfa_offset 8
 159              		.cfi_offset 4, -8
 160              		.cfi_offset 14, -4
 161 0002 0446     		mov	r4, r0
  46:SPI.c         ****     
  47:SPI.c         ****     
  48:SPI.c         ****     SPI_slave_ClearTxBuffer();
 162              		.loc 1 48 0
 163 0004 FFF7FEFF 		bl	SPI_slave_ClearTxBuffer
 164              	.LVL13:
  49:SPI.c         ****     SPI_slave_ClearFIFO();
 165              		.loc 1 49 0
 166 0008 FFF7FEFF 		bl	SPI_slave_ClearFIFO
 167              	.LVL14:
 168              	.LBB2:
  50:SPI.c         ****     
  51:SPI.c         ****     //SPI_slave_PutArray(txBuffer,maxMessageLength);
  52:SPI.c         ****    
  53:SPI.c         ****     
  54:SPI.c         ****     uint8 txBufferIndex=0;
  55:SPI.c         ****     for (uint32_t i = 0; i < (maxMessageLength*6); i++)
 169              		.loc 1 55 0
 170 000c 0022     		movs	r2, #0
 171              	.LBE2:
  54:SPI.c         ****     for (uint32_t i = 0; i < (maxMessageLength*6); i++)
ARM GAS  C:\Users\sebbe\AppData\Local\Temp\ccnvVvwR.s 			page 5


 172              		.loc 1 54 0
 173 000e 1346     		mov	r3, r2
 174              	.LBB3:
 175              		.loc 1 55 0
 176 0010 08E0     		b	.L13
 177              	.LVL15:
 178              	.L15:
  56:SPI.c         ****     {
  57:SPI.c         ****         txCloneBuffer[i]=txBuffer[txBufferIndex];
 179              		.loc 1 57 0
 180 0012 E05C     		ldrb	r0, [r4, r3]	@ zero_extendqisi2
 181 0014 0749     		ldr	r1, .L18
 182 0016 8854     		strb	r0, [r1, r2]
  58:SPI.c         ****         txBufferIndex++;
 183              		.loc 1 58 0
 184 0018 0133     		adds	r3, r3, #1
 185              	.LVL16:
 186 001a DBB2     		uxtb	r3, r3
 187              	.LVL17:
  59:SPI.c         ****         if (txBufferIndex>3)
 188              		.loc 1 59 0
 189 001c 032B     		cmp	r3, #3
 190 001e 00D9     		bls	.L14
  60:SPI.c         ****         {
  61:SPI.c         ****             txBufferIndex=0;
 191              		.loc 1 61 0
 192 0020 0023     		movs	r3, #0
 193              	.LVL18:
 194              	.L14:
  55:SPI.c         ****     {
 195              		.loc 1 55 0 discriminator 2
 196 0022 0132     		adds	r2, r2, #1
 197              	.LVL19:
 198              	.L13:
  55:SPI.c         ****     {
 199              		.loc 1 55 0 is_stmt 0 discriminator 1
 200 0024 172A     		cmp	r2, #23
 201 0026 F4D9     		bls	.L15
 202              	.LBE3:
  62:SPI.c         ****         }
  63:SPI.c         ****     }
  64:SPI.c         ****     
  65:SPI.c         ****     SPI_slave_PutArray(txCloneBuffer,(maxMessageLength*6)); //Bytes to be returned to master on nex
 203              		.loc 1 65 0 is_stmt 1
 204 0028 1821     		movs	r1, #24
 205 002a 0248     		ldr	r0, .L18
 206 002c FFF7FEFF 		bl	SPI_slave_PutArray
 207              	.LVL20:
 208 0030 10BD     		pop	{r4, pc}
 209              	.LVL21:
 210              	.L19:
 211 0032 00BF     		.align	2
 212              	.L18:
 213 0034 00000000 		.word	txCloneBuffer
 214              		.cfi_endproc
 215              	.LFE68:
 216              		.size	transferIsReady, .-transferIsReady
ARM GAS  C:\Users\sebbe\AppData\Local\Temp\ccnvVvwR.s 			page 6


 217              		.text
 218              	.Letext0:
 219              		.file 2 "c:\\program files (x86)\\cypress\\psoc creator\\4.2\\psoc creator\\import\\gnu\\arm\\5.4.
 220              		.file 3 "c:\\program files (x86)\\cypress\\psoc creator\\4.2\\psoc creator\\import\\gnu\\arm\\5.4.
 221              		.file 4 "Generated_Source\\PSoC5/cytypes.h"
 222              		.file 5 "c:\\program files (x86)\\cypress\\psoc creator\\4.2\\psoc creator\\import\\gnu\\arm\\5.4.
 223              		.file 6 "Generated_Source\\PSoC5/core_cm3.h"
 224              		.file 7 "Generated_Source\\PSoC5/SPI_slave.h"
 225              		.file 8 "Generated_Source\\PSoC5/slave_rx_interrupt.h"