ARM GAS  C:\Users\sebbe\AppData\Local\Temp\ccAdERtK.s 			page 1


   1              		.syntax unified
   2              		.cpu cortex-m3
   3              		.fpu softvfp
   4              		.eabi_attribute 20, 1
   5              		.eabi_attribute 21, 1
   6              		.eabi_attribute 23, 3
   7              		.eabi_attribute 24, 1
   8              		.eabi_attribute 25, 1
   9              		.eabi_attribute 26, 1
  10              		.eabi_attribute 30, 1
  11              		.eabi_attribute 34, 1
  12              		.eabi_attribute 18, 4
  13              		.thumb
  14              		.syntax unified
  15              		.file	"SPIprotocol.c"
  16              		.text
  17              	.Ltext0:
  18              		.cfi_sections	.debug_frame
  19              		.section	.text.extractFromBuffer,"ax",%progbits
  20              		.align	2
  21              		.global	extractFromBuffer
  22              		.thumb
  23              		.thumb_func
  24              		.type	extractFromBuffer, %function
  25              	extractFromBuffer:
  26              	.LFB63:
  27              		.file 1 "SPIprotocol.c"
   1:SPIprotocol.c **** /* ========================================
   2:SPIprotocol.c ****  *
   3:SPIprotocol.c ****  * Copyright YOUR COMPANY, THE YEAR
   4:SPIprotocol.c ****  * All Rights Reserved
   5:SPIprotocol.c ****  * UNPUBLISHED, LICENSED SOFTWARE.
   6:SPIprotocol.c ****  *
   7:SPIprotocol.c ****  * CONFIDENTIAL AND PROPRIETARY INFORMATION
   8:SPIprotocol.c ****  * WHICH IS THE PROPERTY OF your company.
   9:SPIprotocol.c ****  *
  10:SPIprotocol.c ****  * ========================================
  11:SPIprotocol.c **** */
  12:SPIprotocol.c **** #include "SPIprotocol.h"
  13:SPIprotocol.c **** 
  14:SPIprotocol.c **** void extractFromBuffer(uint8_t* speed, uint8_t* distance, uint8_t* buffer)
  15:SPIprotocol.c **** {
  28              		.loc 1 15 0
  29              		.cfi_startproc
  30              		@ args = 0, pretend = 0, frame = 0
  31              		@ frame_needed = 0, uses_anonymous_args = 0
  32              		@ link register save eliminated.
  33              	.LVL0:
  16:SPIprotocol.c ****     *speed=buffer[SPEED_INDEX];
  34              		.loc 1 16 0
  35 0000 5378     		ldrb	r3, [r2, #1]	@ zero_extendqisi2
  36 0002 0370     		strb	r3, [r0]
  17:SPIprotocol.c ****     *distance=buffer[DISTANCE_INDEX];
  37              		.loc 1 17 0
  38 0004 9378     		ldrb	r3, [r2, #2]	@ zero_extendqisi2
  39 0006 0B70     		strb	r3, [r1]
  40 0008 7047     		bx	lr
ARM GAS  C:\Users\sebbe\AppData\Local\Temp\ccAdERtK.s 			page 2


  41              		.cfi_endproc
  42              	.LFE63:
  43              		.size	extractFromBuffer, .-extractFromBuffer
  44 000a 00BF     		.section	.text.errorCheckWithOddParity,"ax",%progbits
  45              		.align	2
  46              		.global	errorCheckWithOddParity
  47              		.thumb
  48              		.thumb_func
  49              		.type	errorCheckWithOddParity, %function
  50              	errorCheckWithOddParity:
  51              	.LFB64:
  18:SPIprotocol.c **** }
  19:SPIprotocol.c **** 
  20:SPIprotocol.c **** 
  21:SPIprotocol.c **** uint8_t errorCheckWithOddParity(uint8_t* buffer, uint8_t lengthOfBuffer)
  22:SPIprotocol.c **** {
  52              		.loc 1 22 0
  53              		.cfi_startproc
  54              		@ args = 0, pretend = 0, frame = 0
  55              		@ frame_needed = 0, uses_anonymous_args = 0
  56              		@ link register save eliminated.
  57              	.LVL1:
  58 0000 70B4     		push	{r4, r5, r6}
  59              		.cfi_def_cfa_offset 12
  60              		.cfi_offset 4, -12
  61              		.cfi_offset 5, -8
  62              		.cfi_offset 6, -4
  23:SPIprotocol.c ****     uint8_t parityBitsReceived = buffer[ERROR_CHECK_INDEX];
  63              		.loc 1 23 0
  64 0002 C678     		ldrb	r6, [r0, #3]	@ zero_extendqisi2
  65              	.LVL2:
  66              	.LBB2:
  24:SPIprotocol.c **** 
  25:SPIprotocol.c ****     for (uint8_t i = 0; i < (lengthOfBuffer-1); i++)
  67              		.loc 1 25 0
  68 0004 0024     		movs	r4, #0
  69 0006 1EE0     		b	.L3
  70              	.LVL3:
  71              	.L10:
  72              	.LBB3:
  26:SPIprotocol.c ****     {
  27:SPIprotocol.c ****         uint8_t numberOfOnes=0;
  28:SPIprotocol.c ****         uint8_t byteToBeChecked = buffer[i];
  73              		.loc 1 28 0
  74 0008 035D     		ldrb	r3, [r0, r4]	@ zero_extendqisi2
  75              	.LVL4:
  27:SPIprotocol.c ****         uint8_t byteToBeChecked = buffer[i];
  76              		.loc 1 27 0
  77 000a 0022     		movs	r2, #0
  29:SPIprotocol.c ****         uint8_t checkedByteHasOddNumberOfOnes = 0;
  30:SPIprotocol.c ****         uint8_t parityBitReceivedFromSender = 0;
  31:SPIprotocol.c **** 
  32:SPIprotocol.c ****         while(byteToBeChecked>0)
  78              		.loc 1 32 0
  79 000c 05E0     		b	.L4
  80              	.LVL5:
  81              	.L6:
ARM GAS  C:\Users\sebbe\AppData\Local\Temp\ccAdERtK.s 			page 3


  33:SPIprotocol.c ****         {
  34:SPIprotocol.c ****             if(byteToBeChecked & 0b00000001)
  82              		.loc 1 34 0
  83 000e 13F0010F 		tst	r3, #1
  84 0012 01D0     		beq	.L5
  35:SPIprotocol.c ****             {
  36:SPIprotocol.c ****                 numberOfOnes++;
  85              		.loc 1 36 0
  86 0014 0132     		adds	r2, r2, #1
  87              	.LVL6:
  88 0016 D2B2     		uxtb	r2, r2
  89              	.LVL7:
  90              	.L5:
  37:SPIprotocol.c ****             }
  38:SPIprotocol.c ****             byteToBeChecked = byteToBeChecked>>1;
  91              		.loc 1 38 0
  92 0018 5B08     		lsrs	r3, r3, #1
  93              	.LVL8:
  94              	.L4:
  32:SPIprotocol.c ****         {
  95              		.loc 1 32 0
  96 001a 002B     		cmp	r3, #0
  97 001c F7D1     		bne	.L6
  39:SPIprotocol.c ****         }
  40:SPIprotocol.c **** 
  41:SPIprotocol.c ****         if (numberOfOnes & 0b00000001)
  98              		.loc 1 41 0
  99 001e 12F0010F 		tst	r2, #1
 100 0022 01D1     		bne	.L11
  29:SPIprotocol.c ****         uint8_t parityBitReceivedFromSender = 0;
 101              		.loc 1 29 0
 102 0024 0022     		movs	r2, #0
 103              	.LVL9:
 104 0026 00E0     		b	.L7
 105              	.LVL10:
 106              	.L11:
  42:SPIprotocol.c ****         {
  43:SPIprotocol.c ****             checkedByteHasOddNumberOfOnes = 1;
 107              		.loc 1 43 0
 108 0028 0122     		movs	r2, #1
 109              	.LVL11:
 110              	.L7:
  44:SPIprotocol.c ****         }
  45:SPIprotocol.c **** 
  46:SPIprotocol.c ****         //Extraction of parity bit from byte of parity bits.
  47:SPIprotocol.c ****         if ((parityBitsReceived & (1<<(7-i))))
 111              		.loc 1 47 0
 112 002a C5F10705 		rsb	r5, r5, #7
 113 002e 46FA05F5 		asr	r5, r6, r5
 114 0032 15F0010F 		tst	r5, #1
 115 0036 01D1     		bne	.L12
  30:SPIprotocol.c **** 
 116              		.loc 1 30 0
 117 0038 0023     		movs	r3, #0
 118              	.LVL12:
 119 003a 00E0     		b	.L8
 120              	.LVL13:
ARM GAS  C:\Users\sebbe\AppData\Local\Temp\ccAdERtK.s 			page 4


 121              	.L12:
  48:SPIprotocol.c ****         {
  49:SPIprotocol.c ****             parityBitReceivedFromSender = 1;
 122              		.loc 1 49 0
 123 003c 0123     		movs	r3, #1
 124              	.LVL14:
 125              	.L8:
  50:SPIprotocol.c ****         }
  51:SPIprotocol.c ****         
  52:SPIprotocol.c ****         //if checked byte has odd number of ones, the corresponding parity bit is expected to be ze
  53:SPIprotocol.c ****         if (checkedByteHasOddNumberOfOnes == parityBitReceivedFromSender)
 126              		.loc 1 53 0
 127 003e 9A42     		cmp	r2, r3
 128 0040 07D0     		beq	.L13
 129              	.LBE3:
  25:SPIprotocol.c ****     {
 130              		.loc 1 25 0 discriminator 2
 131 0042 0134     		adds	r4, r4, #1
 132              	.LVL15:
 133 0044 E4B2     		uxtb	r4, r4
 134              	.LVL16:
 135              	.L3:
  25:SPIprotocol.c ****     {
 136              		.loc 1 25 0 is_stmt 0 discriminator 1
 137 0046 2546     		mov	r5, r4
 138 0048 4B1E     		subs	r3, r1, #1
 139 004a 9C42     		cmp	r4, r3
 140 004c DCDB     		blt	.L10
 141              	.LBE2:
  54:SPIprotocol.c ****         {
  55:SPIprotocol.c ****             return 0;
  56:SPIprotocol.c ****         }
  57:SPIprotocol.c ****     }
  58:SPIprotocol.c ****     return 1;
 142              		.loc 1 58 0 is_stmt 1
 143 004e 0120     		movs	r0, #1
 144              	.LVL17:
 145              	.LBB5:
 146 0050 00E0     		b	.L9
 147              	.LVL18:
 148              	.L13:
 149              	.LBB4:
  55:SPIprotocol.c ****         }
 150              		.loc 1 55 0
 151 0052 0020     		movs	r0, #0
 152              	.LVL19:
 153              	.L9:
 154              	.LBE4:
 155              	.LBE5:
  59:SPIprotocol.c **** }
 156              		.loc 1 59 0
 157 0054 70BC     		pop	{r4, r5, r6}
 158              		.cfi_restore 6
 159              		.cfi_restore 5
 160              		.cfi_restore 4
 161              		.cfi_def_cfa_offset 0
 162              	.LVL20:
ARM GAS  C:\Users\sebbe\AppData\Local\Temp\ccAdERtK.s 			page 5


 163 0056 7047     		bx	lr
 164              		.cfi_endproc
 165              	.LFE64:
 166              		.size	errorCheckWithOddParity, .-errorCheckWithOddParity
 167              		.section	.text.createParityBits,"ax",%progbits
 168              		.align	2
 169              		.global	createParityBits
 170              		.thumb
 171              		.thumb_func
 172              		.type	createParityBits, %function
 173              	createParityBits:
 174              	.LFB65:
  60:SPIprotocol.c **** 
  61:SPIprotocol.c **** void createParityBits(uint8_t* buffer, uint8_t lengthOfBuffer)
  62:SPIprotocol.c **** {
 175              		.loc 1 62 0
 176              		.cfi_startproc
 177              		@ args = 0, pretend = 0, frame = 0
 178              		@ frame_needed = 0, uses_anonymous_args = 0
 179              		@ link register save eliminated.
 180              	.LVL21:
 181 0000 70B4     		push	{r4, r5, r6}
 182              		.cfi_def_cfa_offset 12
 183              		.cfi_offset 4, -12
 184              		.cfi_offset 5, -8
 185              		.cfi_offset 6, -4
 186              	.LVL22:
 187              	.LBB6:
  63:SPIprotocol.c ****     for (uint8_t i = 0; i < (lengthOfBuffer-1); i++)
 188              		.loc 1 63 0
 189 0002 0024     		movs	r4, #0
 190 0004 17E0     		b	.L16
 191              	.LVL23:
 192              	.L21:
 193              	.LBB7:
  64:SPIprotocol.c ****     {
  65:SPIprotocol.c **** 
  66:SPIprotocol.c ****         uint8_t numberOfOnes=0;
  67:SPIprotocol.c ****         uint8_t byteToBeChecked = buffer[i];
 194              		.loc 1 67 0
 195 0006 035D     		ldrb	r3, [r0, r4]	@ zero_extendqisi2
 196              	.LVL24:
  66:SPIprotocol.c ****         uint8_t byteToBeChecked = buffer[i];
 197              		.loc 1 66 0
 198 0008 0022     		movs	r2, #0
  68:SPIprotocol.c ****         
  69:SPIprotocol.c **** 
  70:SPIprotocol.c ****          while(byteToBeChecked>0)
 199              		.loc 1 70 0
 200 000a 05E0     		b	.L17
 201              	.LVL25:
 202              	.L19:
  71:SPIprotocol.c ****         {
  72:SPIprotocol.c ****             if(byteToBeChecked & 0b00000001)
 203              		.loc 1 72 0
 204 000c 13F0010F 		tst	r3, #1
 205 0010 01D0     		beq	.L18
ARM GAS  C:\Users\sebbe\AppData\Local\Temp\ccAdERtK.s 			page 6


  73:SPIprotocol.c ****             {
  74:SPIprotocol.c ****                 numberOfOnes++;
 206              		.loc 1 74 0
 207 0012 0132     		adds	r2, r2, #1
 208              	.LVL26:
 209 0014 D2B2     		uxtb	r2, r2
 210              	.LVL27:
 211              	.L18:
  75:SPIprotocol.c ****             }
  76:SPIprotocol.c ****             byteToBeChecked = byteToBeChecked>>1;
 212              		.loc 1 76 0
 213 0016 5B08     		lsrs	r3, r3, #1
 214              	.LVL28:
 215              	.L17:
  70:SPIprotocol.c ****         {
 216              		.loc 1 70 0
 217 0018 002B     		cmp	r3, #0
 218 001a F7D1     		bne	.L19
  77:SPIprotocol.c ****         }
  78:SPIprotocol.c **** 
  79:SPIprotocol.c ****         //If number of ones in checked byte isn't odd, the corresponding parity bit is set to 1.
  80:SPIprotocol.c ****         if (!(numberOfOnes & 0b00000001))
 219              		.loc 1 80 0
 220 001c 12F0010F 		tst	r2, #1
 221 0020 07D1     		bne	.L20
  81:SPIprotocol.c ****         {
  82:SPIprotocol.c ****             buffer[ERROR_CHECK_INDEX]=(buffer[ERROR_CHECK_INDEX] | (1<<(7-i)));
 222              		.loc 1 82 0
 223 0022 C678     		ldrb	r6, [r0, #3]	@ zero_extendqisi2
 224 0024 C5F10703 		rsb	r3, r5, #7
 225              	.LVL29:
 226 0028 0122     		movs	r2, #1
 227              	.LVL30:
 228 002a 02FA03F3 		lsl	r3, r2, r3
 229 002e 3343     		orrs	r3, r3, r6
 230 0030 C370     		strb	r3, [r0, #3]
 231              	.L20:
 232              	.LBE7:
  63:SPIprotocol.c ****     {
 233              		.loc 1 63 0 discriminator 2
 234 0032 0134     		adds	r4, r4, #1
 235              	.LVL31:
 236 0034 E4B2     		uxtb	r4, r4
 237              	.LVL32:
 238              	.L16:
  63:SPIprotocol.c ****     {
 239              		.loc 1 63 0 is_stmt 0 discriminator 1
 240 0036 2546     		mov	r5, r4
 241 0038 4B1E     		subs	r3, r1, #1
 242 003a 9C42     		cmp	r4, r3
 243 003c E3DB     		blt	.L21
 244              	.LBE6:
  83:SPIprotocol.c ****         }
  84:SPIprotocol.c ****     }
  85:SPIprotocol.c **** }
 245              		.loc 1 85 0 is_stmt 1
 246 003e 70BC     		pop	{r4, r5, r6}
ARM GAS  C:\Users\sebbe\AppData\Local\Temp\ccAdERtK.s 			page 7


 247              		.cfi_restore 6
 248              		.cfi_restore 5
 249              		.cfi_restore 4
 250              		.cfi_def_cfa_offset 0
 251              	.LVL33:
 252 0040 7047     		bx	lr
 253              		.cfi_endproc
 254              	.LFE65:
 255              		.size	createParityBits, .-createParityBits
 256 0042 00BF     		.text
 257              	.Letext0:
 258              		.file 2 "c:\\program files (x86)\\cypress\\psoc creator\\4.2\\psoc creator\\import\\gnu\\arm\\5.4.
 259              		.file 3 "c:\\program files (x86)\\cypress\\psoc creator\\4.2\\psoc creator\\import\\gnu\\arm\\5.4.
 260              		.file 4 "SPIprotocol.h"
 261              		.file 5 "Generated_Source\\PSoC5/core_cm3.h"