ARM GAS  C:\Users\sebbe\AppData\Local\Temp\ccJW8qrc.s 			page 1


   1              		.syntax unified
   2              		.cpu cortex-m3
   3              		.fpu softvfp
   4              		.eabi_attribute 20, 1
   5              		.eabi_attribute 21, 1
   6              		.eabi_attribute 23, 3
   7              		.eabi_attribute 24, 1
   8              		.eabi_attribute 25, 1
   9              		.eabi_attribute 26, 1
  10              		.eabi_attribute 30, 1
  11              		.eabi_attribute 34, 1
  12              		.eabi_attribute 18, 4
  13              		.thumb
  14              		.syntax unified
  15              		.file	"wheelSensor.c"
  16              		.text
  17              	.Ltext0:
  18              		.cfi_sections	.debug_frame
  19              		.section	.text.initWheelSensor,"ax",%progbits
  20              		.align	2
  21              		.global	initWheelSensor
  22              		.thumb
  23              		.thumb_func
  24              		.type	initWheelSensor, %function
  25              	initWheelSensor:
  26              	.LFB64:
  27              		.file 1 "wheelSensor.c"
   1:wheelSensor.c **** /* ========================================
   2:wheelSensor.c ****  *
   3:wheelSensor.c ****  * Copyright YOUR COMPANY, THE YEAR
   4:wheelSensor.c ****  * All Rights Reserved
   5:wheelSensor.c ****  * UNPUBLISHED, LICENSED SOFTWARE.
   6:wheelSensor.c ****  *
   7:wheelSensor.c ****  * CONFIDENTIAL AND PROPRIETARY INFORMATION
   8:wheelSensor.c ****  * WHICH IS THE PROPERTY OF your company.
   9:wheelSensor.c ****  *
  10:wheelSensor.c ****  * ========================================
  11:wheelSensor.c **** */
  12:wheelSensor.c **** #include "wheelSensor.h"
  13:wheelSensor.c **** 
  14:wheelSensor.c **** void initWheelSensor()
  15:wheelSensor.c **** {
  28              		.loc 1 15 0
  29              		.cfi_startproc
  30              		@ args = 0, pretend = 0, frame = 0
  31              		@ frame_needed = 0, uses_anonymous_args = 0
  32 0000 08B5     		push	{r3, lr}
  33              		.cfi_def_cfa_offset 8
  34              		.cfi_offset 3, -8
  35              		.cfi_offset 14, -4
  16:wheelSensor.c ****     isr_wheel_tick_StartEx(isr_wheel_tick_Handler);
  36              		.loc 1 16 0
  37 0002 0448     		ldr	r0, .L3
  38 0004 FFF7FEFF 		bl	isr_wheel_tick_StartEx
  39              	.LVL0:
  17:wheelSensor.c ****     
  18:wheelSensor.c ****     WheelTickTimer_Start();
ARM GAS  C:\Users\sebbe\AppData\Local\Temp\ccJW8qrc.s 			page 2


  40              		.loc 1 18 0
  41 0008 FFF7FEFF 		bl	WheelTickTimer_Start
  42              	.LVL1:
  19:wheelSensor.c ****     
  20:wheelSensor.c ****     Timer_Isr_BikeIsStopping_StartEx(Timer_Isr_BikeIsStopping_handler);
  43              		.loc 1 20 0
  44 000c 0248     		ldr	r0, .L3+4
  45 000e FFF7FEFF 		bl	Timer_Isr_BikeIsStopping_StartEx
  46              	.LVL2:
  47 0012 08BD     		pop	{r3, pc}
  48              	.L4:
  49              		.align	2
  50              	.L3:
  51 0014 00000000 		.word	isr_wheel_tick_Handler
  52 0018 00000000 		.word	Timer_Isr_BikeIsStopping_handler
  53              		.cfi_endproc
  54              	.LFE64:
  55              		.size	initWheelSensor, .-initWheelSensor
  56              		.global	__aeabi_i2d
  57              		.global	__aeabi_dmul
  58              		.section	.text.calcDistance,"ax",%progbits
  59              		.align	2
  60              		.global	calcDistance
  61              		.thumb
  62              		.thumb_func
  63              		.type	calcDistance, %function
  64              	calcDistance:
  65              	.LFB65:
  21:wheelSensor.c ****     
  22:wheelSensor.c **** }
  23:wheelSensor.c **** 
  24:wheelSensor.c **** double calcDistance(int wheelRevolutions, double wheelCirc)
  25:wheelSensor.c ****    {
  66              		.loc 1 25 0
  67              		.cfi_startproc
  68              		@ args = 0, pretend = 0, frame = 0
  69              		@ frame_needed = 0, uses_anonymous_args = 0
  70              	.LVL3:
  71 0000 38B5     		push	{r3, r4, r5, lr}
  72              		.cfi_def_cfa_offset 16
  73              		.cfi_offset 3, -16
  74              		.cfi_offset 4, -12
  75              		.cfi_offset 5, -8
  76              		.cfi_offset 14, -4
  77 0002 1446     		mov	r4, r2
  78 0004 1D46     		mov	r5, r3
  26:wheelSensor.c ****         double dist = wheelRevolutions * wheelCirc; 
  79              		.loc 1 26 0
  80 0006 FFF7FEFF 		bl	__aeabi_i2d
  81              	.LVL4:
  82 000a 2246     		mov	r2, r4
  83 000c 2B46     		mov	r3, r5
  84 000e FFF7FEFF 		bl	__aeabi_dmul
  85              	.LVL5:
  27:wheelSensor.c ****         
  28:wheelSensor.c ****         return dist;
  29:wheelSensor.c ****    } 
ARM GAS  C:\Users\sebbe\AppData\Local\Temp\ccJW8qrc.s 			page 3


  86              		.loc 1 29 0
  87 0012 38BD     		pop	{r3, r4, r5, pc}
  88              		.cfi_endproc
  89              	.LFE65:
  90              		.size	calcDistance, .-calcDistance
  91              		.global	__aeabi_ddiv
  92              		.section	.text.calcSpeed,"ax",%progbits
  93              		.align	2
  94              		.global	calcSpeed
  95              		.thumb
  96              		.thumb_func
  97              		.type	calcSpeed, %function
  98              	calcSpeed:
  99              	.LFB66:
  30:wheelSensor.c ****     
  31:wheelSensor.c **** double calcSpeed(double time_ms, double dist)
  32:wheelSensor.c ****     {
 100              		.loc 1 32 0
 101              		.cfi_startproc
 102              		@ args = 0, pretend = 0, frame = 0
 103              		@ frame_needed = 0, uses_anonymous_args = 0
 104              	.LVL6:
 105 0000 38B5     		push	{r3, r4, r5, lr}
 106              		.cfi_def_cfa_offset 16
 107              		.cfi_offset 3, -16
 108              		.cfi_offset 4, -12
 109              		.cfi_offset 5, -8
 110              		.cfi_offset 14, -4
 111 0002 1446     		mov	r4, r2
 112 0004 1D46     		mov	r5, r3
  33:wheelSensor.c ****         double time_temp = time_ms/3600000;
 113              		.loc 1 33 0
 114 0006 06A3     		adr	r3, .L9
 115 0008 D3E90023 		ldrd	r2, [r3]
 116              	.LVL7:
 117 000c FFF7FEFF 		bl	__aeabi_ddiv
 118              	.LVL8:
  34:wheelSensor.c ****         double  speed = dist/time_temp;
 119              		.loc 1 34 0
 120 0010 0246     		mov	r2, r0
 121 0012 0B46     		mov	r3, r1
 122 0014 2046     		mov	r0, r4
 123              	.LVL9:
 124 0016 2946     		mov	r1, r5
 125 0018 FFF7FEFF 		bl	__aeabi_ddiv
 126              	.LVL10:
  35:wheelSensor.c ****     
  36:wheelSensor.c ****         return speed;    
  37:wheelSensor.c ****     }    
 127              		.loc 1 37 0
 128 001c 38BD     		pop	{r3, r4, r5, pc}
 129              	.L10:
 130 001e 00BF     		.align	3
 131              	.L9:
 132 0020 00000000 		.word	0
 133 0024 40774B41 		.word	1095464768
 134              		.cfi_endproc
ARM GAS  C:\Users\sebbe\AppData\Local\Temp\ccJW8qrc.s 			page 4


 135              	.LFE66:
 136              		.size	calcSpeed, .-calcSpeed
 137              		.global	__aeabi_ui2d
 138              		.section	.text.WheelRadiusToMetres,"ax",%progbits
 139              		.align	2
 140              		.global	WheelRadiusToMetres
 141              		.thumb
 142              		.thumb_func
 143              		.type	WheelRadiusToMetres, %function
 144              	WheelRadiusToMetres:
 145              	.LFB67:
  38:wheelSensor.c **** 
  39:wheelSensor.c **** double WheelRadiusToMetres(uint8 userInputInCentimeters)
  40:wheelSensor.c ****     {
 146              		.loc 1 40 0
 147              		.cfi_startproc
 148              		@ args = 0, pretend = 0, frame = 0
 149              		@ frame_needed = 0, uses_anonymous_args = 0
 150              	.LVL11:
 151 0000 08B5     		push	{r3, lr}
 152              		.cfi_def_cfa_offset 8
 153              		.cfi_offset 3, -8
 154              		.cfi_offset 14, -4
  41:wheelSensor.c ****         double wheelRadiusInMeters = (double)userInputInCentimeters/100;
 155              		.loc 1 41 0
 156 0002 FFF7FEFF 		bl	__aeabi_ui2d
 157              	.LVL12:
 158 0006 0022     		movs	r2, #0
 159 0008 014B     		ldr	r3, .L13
 160 000a FFF7FEFF 		bl	__aeabi_ddiv
 161              	.LVL13:
  42:wheelSensor.c ****     
  43:wheelSensor.c ****         return wheelRadiusInMeters;
  44:wheelSensor.c ****     }
 162              		.loc 1 44 0
 163 000e 08BD     		pop	{r3, pc}
 164              	.L14:
 165              		.align	2
 166              	.L13:
 167 0010 00005940 		.word	1079574528
 168              		.cfi_endproc
 169              	.LFE67:
 170              		.size	WheelRadiusToMetres, .-WheelRadiusToMetres
 171              		.global	__aeabi_dadd
 172              		.section	.text.calcWheelCirc,"ax",%progbits
 173              		.align	2
 174              		.global	calcWheelCirc
 175              		.thumb
 176              		.thumb_func
 177              		.type	calcWheelCirc, %function
 178              	calcWheelCirc:
 179              	.LFB68:
  45:wheelSensor.c **** 
  46:wheelSensor.c **** double calcWheelCirc(double radius)
  47:wheelSensor.c ****     {
 180              		.loc 1 47 0
 181              		.cfi_startproc
ARM GAS  C:\Users\sebbe\AppData\Local\Temp\ccJW8qrc.s 			page 5


 182              		@ args = 0, pretend = 0, frame = 0
 183              		@ frame_needed = 0, uses_anonymous_args = 0
 184              	.LVL14:
 185 0000 08B5     		push	{r3, lr}
 186              		.cfi_def_cfa_offset 8
 187              		.cfi_offset 3, -8
 188              		.cfi_offset 14, -4
  48:wheelSensor.c ****         double wheelCirc = (radius * 3.14 * 2)/1000;
 189              		.loc 1 48 0
 190 0002 07A3     		adr	r3, .L17
 191 0004 D3E90023 		ldrd	r2, [r3]
 192 0008 FFF7FEFF 		bl	__aeabi_dmul
 193              	.LVL15:
 194 000c 0246     		mov	r2, r0
 195 000e 0B46     		mov	r3, r1
 196 0010 FFF7FEFF 		bl	__aeabi_dadd
 197              	.LVL16:
 198 0014 0022     		movs	r2, #0
 199 0016 044B     		ldr	r3, .L17+8
 200 0018 FFF7FEFF 		bl	__aeabi_ddiv
 201              	.LVL17:
  49:wheelSensor.c ****     
  50:wheelSensor.c ****         return wheelCirc;
  51:wheelSensor.c ****     }
 202              		.loc 1 51 0
 203 001c 08BD     		pop	{r3, pc}
 204              	.L18:
 205 001e 00BF     		.align	3
 206              	.L17:
 207 0020 1F85EB51 		.word	1374389535
 208 0024 B81E0940 		.word	1074339512
 209 0028 00408F40 		.word	1083129856
 210              		.cfi_endproc
 211              	.LFE68:
 212              		.size	calcWheelCirc, .-calcWheelCirc
 213              		.section	.text.setSpeedToZero,"ax",%progbits
 214              		.align	2
 215              		.global	setSpeedToZero
 216              		.thumb
 217              		.thumb_func
 218              		.type	setSpeedToZero, %function
 219              	setSpeedToZero:
 220              	.LFB69:
  52:wheelSensor.c **** 
  53:wheelSensor.c ****     void setSpeedToZero(uint8* speed)
  54:wheelSensor.c ****     {
 221              		.loc 1 54 0
 222              		.cfi_startproc
 223              		@ args = 0, pretend = 0, frame = 0
 224              		@ frame_needed = 0, uses_anonymous_args = 0
 225              		@ link register save eliminated.
 226              	.LVL18:
  55:wheelSensor.c ****         *speed = 0;
 227              		.loc 1 55 0
 228 0000 0023     		movs	r3, #0
 229 0002 0370     		strb	r3, [r0]
 230 0004 7047     		bx	lr
ARM GAS  C:\Users\sebbe\AppData\Local\Temp\ccJW8qrc.s 			page 6


 231              		.cfi_endproc
 232              	.LFE69:
 233              		.size	setSpeedToZero, .-setSpeedToZero
 234 0006 00BF     		.section	.text.resetSpeedTimer,"ax",%progbits
 235              		.align	2
 236              		.global	resetSpeedTimer
 237              		.thumb
 238              		.thumb_func
 239              		.type	resetSpeedTimer, %function
 240              	resetSpeedTimer:
 241              	.LFB70:
  56:wheelSensor.c ****     }
  57:wheelSensor.c **** 
  58:wheelSensor.c ****     void resetSpeedTimer()
  59:wheelSensor.c ****     {
 242              		.loc 1 59 0
 243              		.cfi_startproc
 244              		@ args = 0, pretend = 0, frame = 0
 245              		@ frame_needed = 0, uses_anonymous_args = 0
 246 0000 08B5     		push	{r3, lr}
 247              		.cfi_def_cfa_offset 8
 248              		.cfi_offset 3, -8
 249              		.cfi_offset 14, -4
  60:wheelSensor.c ****         WheelTickTimer_WriteCounter(3000);
 250              		.loc 1 60 0
 251 0002 40F6B830 		movw	r0, #3000
 252 0006 FFF7FEFF 		bl	WheelTickTimer_WriteCounter
 253              	.LVL19:
 254 000a 08BD     		pop	{r3, pc}
 255              		.cfi_endproc
 256              	.LFE70:
 257              		.size	resetSpeedTimer, .-resetSpeedTimer
 258              		.text
 259              	.Letext0:
 260              		.file 2 "c:\\program files (x86)\\cypress\\psoc creator\\4.2\\psoc creator\\import\\gnu\\arm\\5.4.
 261              		.file 3 "c:\\program files (x86)\\cypress\\psoc creator\\4.2\\psoc creator\\import\\gnu\\arm\\5.4.
 262              		.file 4 "Generated_Source\\PSoC5/cytypes.h"
 263              		.file 5 "Generated_Source\\PSoC5/isr_wheel_tick.h"
 264              		.file 6 "Generated_Source\\PSoC5/WheelTickTimer.h"
 265              		.file 7 "Generated_Source\\PSoC5/Timer_Isr_BikeIsStopping.h"
 266              		.file 8 "Generated_Source\\PSoC5/core_cm3.h"